
EADOGL128.elf:     file format elf32-avr

Sections:
Idx Name          Size      VMA       LMA       File off  Algn
  0 .data         00000062  00800100  00004532  000045c6  2**0
                  CONTENTS, ALLOC, LOAD, DATA
  1 .text         00004532  00000000  00000000  00000094  2**1
                  CONTENTS, ALLOC, LOAD, READONLY, CODE
  2 .bss          0000047a  00800162  00800162  00004628  2**0
                  ALLOC
  3 .comment      00000030  00000000  00000000  00004628  2**0
                  CONTENTS, READONLY
  4 .note.gnu.avr.deviceinfo 00000040  00000000  00000000  00004658  2**2
                  CONTENTS, READONLY
  5 .debug_aranges 000002b8  00000000  00000000  00004698  2**0
                  CONTENTS, READONLY, DEBUGGING
  6 .debug_info   00004edc  00000000  00000000  00004950  2**0
                  CONTENTS, READONLY, DEBUGGING
  7 .debug_abbrev 000004aa  00000000  00000000  0000982c  2**0
                  CONTENTS, READONLY, DEBUGGING
  8 .debug_line   00001029  00000000  00000000  00009cd6  2**0
                  CONTENTS, READONLY, DEBUGGING
  9 .debug_frame  00000cb4  00000000  00000000  0000ad00  2**2
                  CONTENTS, READONLY, DEBUGGING
 10 .debug_str    00000939  00000000  00000000  0000b9b4  2**0
                  CONTENTS, READONLY, DEBUGGING
 11 .debug_loc    00004627  00000000  00000000  0000c2ed  2**0
                  CONTENTS, READONLY, DEBUGGING
 12 .debug_ranges 00000438  00000000  00000000  00010914  2**0
                  CONTENTS, READONLY, DEBUGGING

Disassembly of section .text:

00000000 <__vectors>:
       0:	0c 94 58 07 	jmp	0xeb0	; 0xeb0 <__ctors_end>
       4:	0c 94 75 07 	jmp	0xeea	; 0xeea <__bad_interrupt>
       8:	0c 94 75 07 	jmp	0xeea	; 0xeea <__bad_interrupt>
       c:	0c 94 66 0b 	jmp	0x16cc	; 0x16cc <__vector_3>
      10:	0c 94 75 07 	jmp	0xeea	; 0xeea <__bad_interrupt>
      14:	0c 94 99 0b 	jmp	0x1732	; 0x1732 <__vector_5>
      18:	0c 94 75 07 	jmp	0xeea	; 0xeea <__bad_interrupt>
      1c:	0c 94 75 07 	jmp	0xeea	; 0xeea <__bad_interrupt>
      20:	0c 94 75 07 	jmp	0xeea	; 0xeea <__bad_interrupt>
      24:	0c 94 df 0b 	jmp	0x17be	; 0x17be <__vector_9>
      28:	0c 94 75 07 	jmp	0xeea	; 0xeea <__bad_interrupt>
      2c:	0c 94 75 07 	jmp	0xeea	; 0xeea <__bad_interrupt>
      30:	0c 94 75 07 	jmp	0xeea	; 0xeea <__bad_interrupt>
      34:	0c 94 75 07 	jmp	0xeea	; 0xeea <__bad_interrupt>
      38:	0c 94 75 07 	jmp	0xeea	; 0xeea <__bad_interrupt>
      3c:	0c 94 75 07 	jmp	0xeea	; 0xeea <__bad_interrupt>
      40:	0c 94 34 0c 	jmp	0x1868	; 0x1868 <__vector_16>
      44:	0c 94 75 07 	jmp	0xeea	; 0xeea <__bad_interrupt>
      48:	0c 94 75 07 	jmp	0xeea	; 0xeea <__bad_interrupt>
      4c:	0c 94 75 07 	jmp	0xeea	; 0xeea <__bad_interrupt>
      50:	0c 94 75 07 	jmp	0xeea	; 0xeea <__bad_interrupt>
      54:	0c 94 75 07 	jmp	0xeea	; 0xeea <__bad_interrupt>
      58:	0c 94 75 07 	jmp	0xeea	; 0xeea <__bad_interrupt>
      5c:	0c 94 75 07 	jmp	0xeea	; 0xeea <__bad_interrupt>
      60:	0c 94 75 07 	jmp	0xeea	; 0xeea <__bad_interrupt>
      64:	0c 94 75 07 	jmp	0xeea	; 0xeea <__bad_interrupt>

00000068 <__trampolines_end>:
      68:	80 03       	fmuls	r16, r16
      6a:	c0 01       	movw	r24, r0
      6c:	c0 07       	cpc	r28, r16
      6e:	e0 03       	fmuls	r22, r16
      70:	c0 07       	cpc	r28, r16
      72:	e0 03       	fmuls	r22, r16
      74:	c0 07       	cpc	r28, r16
      76:	e0 03       	fmuls	r22, r16
      78:	80 03       	fmuls	r16, r16
      7a:	c0 01       	movw	r24, r0

0000007c <daysPerMonth>:
      7c:	1f 1c 1f 1e 1f 1e 1f 1f 1e 1f 1e 1f                 ............

00000088 <months>:
      88:	23 00 00 00 0d 00 14 00 00 00 11 00 35 00 35 00     #...........5.5.
      98:	35 00 1f 00 04 00 01 00 11 00 14 00 00 00 11 00     5...............
      a8:	35 00 35 00 26 00 34 00 11 00 19 00 35 00 35 00     5.5.&.4.....5.5.
      b8:	35 00 35 00 35 00 1a 00 0f 00 11 00 08 00 0b 00     5.5.5...........
      c8:	35 00 35 00 35 00 35 00 26 00 00 00 08 00 35 00     5.5.5.5.&.....5.
      d8:	35 00 35 00 35 00 35 00 35 00 23 00 14 00 0d 00     5.5.5.5.5.#.....
      e8:	08 00 35 00 35 00 35 00 35 00 35 00 23 00 14 00     ..5.5.5.5.5.#...
      f8:	0b 00 08 00 35 00 35 00 35 00 35 00 35 00 1a 00     ....5.5.5.5.5...
     108:	14 00 06 00 14 00 12 00 13 00 35 00 35 00 35 00     ..........5.5.5.
     118:	2c 00 04 00 0f 00 13 00 04 00 0c 00 01 00 04 00     ,...............
     128:	11 00 28 00 0a 00 13 00 0e 00 01 00 04 00 11 00     ..(.............
     138:	35 00 35 00 27 00 0e 00 15 00 04 00 0c 00 01 00     5.5.'...........
     148:	04 00 11 00 35 00 1d 00 04 00 19 00 04 00 0c 00     ....5...........
     158:	01 00 04 00 11 00 35 00                             ......5.

00000160 <alphaWidth>:
     160:	08 09 07 09 08 00 08 0a 04 00 09 04 0d 0a 08 09     ................
     170:	00 06 06 06 0a 0b 0e 0a 00 08 0d 0a 00 0b 00 09     ................
     180:	00 00 00 05 0b 09 0e 0c 0c 00 00 00 08 00 0c 00     ................
     190:	12 00 00 00 08 00 02 0a                             ........

00000198 <bigNumberWidth>:
     198:	14 0e 13 14 14 12 14 14 14 14                       ..........

000001a2 <bigNumber>:
     1a2:	00 f0 0f 00 00 ff ff 07 e0 ff ff 0f f0 ff ff 1f     ................
     1b2:	f8 0f f0 3f 7c 00 00 7f 1e 00 00 78 0f 00 00 f0     ...?|......x....
     1c2:	07 00 00 e0 07 00 00 e0 07 00 00 e0 07 00 00 e0     ................
     1d2:	0f 00 00 f0 1e 00 00 78 7c 00 00 7f f8 0f f0 3f     .......x|......?
     1e2:	f0 ff ff 1f e0 ff ff 0f 00 ff ff 07 00 f0 0f 00     ................
     1f2:	10 00 00 00 10 00 00 00 18 00 00 70 18 00 00 70     ...........p...p
     202:	1c 00 00 70 1c 00 00 70 fc ff ff 7f fe ff ff 7f     ...p...p........
     212:	fe ff ff 7f fe ff ff 7f 00 00 00 70 00 00 00 70     ...........p...p
     222:	00 00 00 70 00 00 00 70 00 00 00 00 00 00 00 00     ...p...p........
	...
     242:	00 00 00 70 fc 01 00 78 fc 01 00 7c 7e 00 00 7e     ...p...x...|~..~
     252:	1e 00 00 7f 0e 00 80 7f 0e 00 c0 77 07 00 e0 73     ...........w...s
     262:	07 00 f0 71 07 00 f8 70 07 00 7c 70 0e 00 3e 70     ...q...p..|p..>p
     272:	1e 00 1f 70 1e 80 0f 70 3c c0 07 70 fc f0 03 70     ...p...p<..p...p
     282:	f8 ff 01 70 f0 ff 00 70 e0 7f 00 70 00 00 00 00     ...p...p...p....
     292:	00 00 00 00 fc 01 80 3f fc 01 80 7f 7e 00 00 7e     .......?....~..~
     2a2:	1e 00 00 78 0e 80 00 f0 06 c0 01 e0 07 c0 01 e0     ...x............
     2b2:	07 c0 01 e0 07 e0 01 e0 0e e0 01 e0 0e f0 01 70     ...............p
     2c2:	3e fe 03 70 fc ff 07 78 fc 9f 1f 3e f8 8f ff 3f     >..p...x...>...?
     2d2:	f0 03 ff 1f 00 00 fe 0f 00 00 f8 03 00 00 00 00     ................
     2e2:	00 00 70 00 00 00 78 00 00 00 7c 00 00 00 7f 00     ..p...x...|.....
     2f2:	00 80 77 00 00 e0 71 00 00 f0 70 00 00 3c 70 00     ..w...q...p..<p.
     302:	00 1e 70 00 00 07 70 70 c0 03 70 70 e0 00 70 70     ..p...pp..pp..pp
     312:	f8 ff ff 7f fc ff ff 7f fe ff ff 7f fe ff ff 7f     ................
     322:	00 00 70 70 00 00 70 70 00 00 70 70 00 00 70 00     ..pp..pp..pp..p.
     332:	00 00 00 30 fe ff 00 70 fe ff 00 60 fe ff 00 60     ...0...p...`...`
     342:	0e f0 00 e0 0e 70 00 e0 0e 70 00 e0 0e 70 00 e0     .....p...p...p..
     352:	0e 70 00 e0 0e f0 00 60 0e e0 00 70 0e e0 01 78     .p.....`...p...x
     362:	0e c0 01 3c 0e c0 0f 3f 0e 80 ff 1f 0e 80 ff 0f     ...<...?........
     372:	0e 00 ff 07 00 00 fc 01 00 00 00 00 00 00 00 00     ................
     382:	00 00 ff 00 00 f0 ff 03 00 fc ff 0f 00 ff ff 1f     ................
     392:	80 ff ff 3f c0 ff 00 3f e0 77 00 78 f0 71 00 70     ...?...?.w.x.q.p
     3a2:	78 70 00 f0 38 70 00 e0 1c 70 00 e0 1c 70 00 e0     xp..8p...p...p..
     3b2:	0e f0 00 70 06 f0 01 78 06 e0 07 3c 07 e0 ff 3f     ...p...x...<...?
     3c2:	07 c0 ff 1f 02 80 ff 0f 00 00 ff 07 00 00 fc 00     ................
     3d2:	fe 01 00 00 fe 01 00 00 fe 01 00 c0 3e 00 00 f0     ............>...
     3e2:	1e 00 00 fc 1e 00 00 ff 1e 00 80 ff 1e 00 e0 ff     ................
     3f2:	1e 00 f8 3f 1e 00 fe 0f 1e 80 ff 01 1e e0 7f 00     ...?............
     402:	1e f8 1f 00 1e fe 03 00 9e ff 00 00 fe 3f 00 00     .............?..
     412:	fe 07 00 00 fe 01 00 00 7e 00 00 00 0e 00 00 00     ........~.......
     422:	00 00 c0 03 c0 07 f0 0f f0 1f f8 1f f8 3f fc 3f     .............?.?
     432:	fc 7f 7e 7e 7c 7e 1f 78 1e fc 07 70 0e f0 03 e0     ..~~|~.x...p....
     442:	07 f0 01 e0 07 e0 01 e0 07 e0 01 e0 07 f0 01 e0     ................
     452:	0e f0 03 e0 1e fc 07 70 7c 7e 1f 78 fc 7f 7e 7e     .......p|~.x..~~
     462:	f8 3f fc 3f f0 1f f8 1f c0 07 f0 0f 00 00 c0 03     .?.?............
     472:	00 3f 00 00 e0 ff 00 00 f0 ff 01 40 f8 ff 03 e0     .?.........@....
     482:	fc ff 07 e0 3c e0 07 60 1e 80 0f 60 0e 00 0f 70     ....<..`...`...p
     492:	07 00 0e 38 07 00 0e 38 07 00 0e 1c 0f 00 0e 1e     ...8...8........
     4a2:	0e 00 8e 0f 1e 00 ee 07 fc 00 ff 03 fc ff ff 01     ................
     4b2:	f8 ff ff 00 f0 ff 3f 00 c0 ff 0f 00 00 ff 00 00     ......?.........

000004c2 <smallNumberWidth>:
     4c2:	0a 04 08 08 09 08 09 08 08 09                       ..........

000004cc <smallNumber>:
     4cc:	f0 01 fc 07 1e 0f 07 1c 03 18 03 18 07 1c 1e 0f     ................
     4dc:	fc 07 f0 01 02 10 ff 1f ff 1f 00 10 00 00 00 00     ................
	...
     4f4:	06 1c 07 1e 03 1f 83 1b c3 19 e7 18 7e 18 3c 18     ............~.<.
     504:	00 00 00 00 06 0c 07 1c 03 18 43 10 e3 18 e3 1c     ..........C.....
     514:	be 0f 1c 07 00 00 00 00 c0 03 e0 03 30 03 18 03     ............0...
     524:	0c 13 fe 1f ff 1f 00 13 00 01 00 00 3f 0c 7f 1c     ............?...
     534:	63 18 63 10 63 18 e3 1c c3 0f 80 07 00 00 00 00     c.c.c...........
     544:	f0 07 f8 0f fc 1c 6e 18 26 10 63 18 e3 1c c1 0f     ......n.&.c.....
     554:	80 07 00 00 07 00 03 18 03 1e 83 07 e3 01 7b 00     ..............{.
     564:	1f 00 07 00 00 00 00 00 1c 07 be 0f f3 19 e1 10     ................
     574:	e1 10 f3 19 9e 0f 0c 07 00 00 00 00 3c 00 7e 10     ............<.~.
     584:	e7 18 c3 18 81 0c c3 0e e7 07 fe 03 fc 01 00 00     ................

00000594 <alphabet>:
     594:	00 0e 60 1f 30 19 b0 19 b0 19 f0 0f e0 1f 00 18     ..`.0...........
	...
     5b8:	01 00 ff 1f ff 1f 60 18 30 18 30 18 70 1c e0 0f     ......`.0.0.p...
     5c8:	c0 07 00 00 00 00 00 00 00 00 00 00 00 00 00 00     ................
     5d8:	00 00 00 00 c0 07 e0 0f 70 1c 10 10 30 18 70 1c     ........p...0.p.
     5e8:	60 0c 00 00 00 00 00 00 00 00 00 00 00 00 00 00     `...............
	...
     600:	80 07 e0 0f 60 18 30 18 30 18 31 08 ff 1f ff 1f     ....`.0.0.1.....
     610:	00 10 00 00 00 00 00 00 00 00 00 00 00 00 00 00     ................
     620:	00 00 00 00 e0 0f f0 0f b0 1d 10 19 10 11 b0 19     ................
     630:	f0 19 e0 08 00 00 00 00 00 00 00 00 00 00 00 00     ................
	...
     66c:	60 76 f0 ff 98 cf 08 8d 98 8d f8 cd f8 fc 08 78     `v.............x
	...
     690:	01 10 ff 1f ff 1f 60 10 30 00 30 00 70 10 e0 1f     ......`.0.0.p...
     6a0:	c0 1f 00 10 00 00 00 00 00 00 00 00 00 00 00 00     ................
     6b0:	00 00 00 00 12 10 f7 1f f2 1f 00 10 00 00 00 00     ................
	...
     6fc:	02 10 ff 1f ff 1f 00 13 80 07 e0 1f 60 1c 20 18     ............`. .
     70c:	00 10 00 00 00 00 00 00 00 00 00 00 00 00 00 00     ................
     71c:	00 00 00 00 01 10 ff 1f ff 1f 00 10 00 00 00 00     ................
	...
     744:	20 10 f0 1f f0 1f 60 10 30 00 70 10 e0 1f c0 1f      .....`.0.p.....
     754:	60 10 30 00 70 10 e0 1f c0 1f 00 10 00 00 00 00     `.0.p...........
     764:	00 00 00 00 20 10 f0 1f f0 1f 30 10 30 00 30 00     .... .....0.0.0.
     774:	70 10 f0 1f c0 1f 00 10 00 00 00 00 00 00 00 00     p...............
	...
     78c:	80 07 e0 0f 60 18 30 18 30 18 60 18 e0 0f 80 07     ....`.0.0.`.....
	...
     7b0:	10 80 f8 ff f8 ff 18 8c 10 08 18 0c 38 0e f0 07     ............8...
     7c0:	e0 01 00 00 00 00 00 00 00 00 00 00 00 00 00 00     ................
	...
     7f8:	10 10 f0 1f f0 1f 60 10 30 00 10 00 00 00 00 00     ......`.0.......
	...
     81c:	c0 0c f0 19 b0 19 10 13 30 1b 60 0e 00 00 00 00     ........0.`.....
	...
     840:	20 00 f0 0f f8 1f 20 18 20 08 00 00 00 00 00 00      ..... . .......
	...
     864:	20 00 f0 0f f0 1f 00 18 00 10 00 10 20 18 f0 0f      ........... ...
     874:	f0 1f 00 10 00 00 00 00 00 00 00 00 00 00 00 00     ................
     884:	00 00 00 00 10 00 30 00 f0 00 d0 03 00 0f 00 1c     ......0.........
     894:	00 0f d0 03 f0 00 30 00 10 00 00 00 00 00 00 00     ......0.........
	...
     8ac:	30 00 70 00 f0 03 f0 0f 80 1f 30 1f f0 03 f0 03     0.p.......0.....
     8bc:	f0 1f 00 1f b0 0f f0 03 70 00 30 00 00 00 00 00     ........p.0.....
     8cc:	00 00 00 00 00 10 10 18 30 1c f0 0e c0 03 c0 03     ........0.......
     8dc:	f0 0e 30 1c 10 18 00 10 00 00 00 00 00 00 00 00     ..0.............
	...
     918:	70 18 30 1c 30 1e 30 1b b0 19 f0 18 70 18 30 1c     p.0.0.0.....p.0.
	...
     93c:	00 10 00 18 00 1e c0 17 f8 01 3e 01 07 01 3e 01     ..........>...>.
     94c:	f8 01 c0 17 00 1e 00 18 00 10 00 00 00 00 00 00     ................
     95c:	00 00 00 00 03 18 ff 1f ff 1f 63 18 63 18 63 18     ..........c.c.c.
     96c:	77 18 de 0c 8c 0f 00 07 00 00 00 00 00 00 00 00     w...............
	...
     9a8:	03 18 ff 1f ff 1f 03 18 03 18 03 18 03 18 07 0c     ................
     9b8:	0e 0e fc 07 f8 03 00 00 00 00 00 00 00 00 00 00     ................
	...
     9f0:	01 10 ff 1f ff 1f c3 10 c3 00 e3 01 03 00 03 00     ................
     a00:	07 00 00 00 00 00 00 00 00 00 00 00 00 00 00 00     ................
	...
     a80:	00 c0 01 e0 ff 7f ff 3f 01 00 00 00 00 00 00 00     .......?........
	...
     aa4:	01 10 ff 1f ff 1f 61 10 f0 00 98 01 0d 03 07 16     ......a.........
     ab4:	03 1c 01 18 00 10 00 00 00 00 00 00 00 00 00 00     ................
     ac4:	00 00 00 00 01 10 ff 1f ff 1f 01 18 00 18 00 18     ................
     ad4:	00 18 00 1c 00 1e 00 00 00 00 00 00 00 00 00 00     ................
	...
     aec:	01 10 ff 1f ff 1f 7e 10 f0 00 c0 03 00 0e 00 0e     ......~.........
     afc:	c0 03 70 00 3e 10 ff 1f ff 1f 01 10 00 00 00 00     ..p.>...........
     b0c:	00 00 00 00 01 10 ff 1f ff 1f 1f 10 3c 00 78 00     ............<.x.
     b1c:	f0 01 c0 03 81 07 ff 1f ff 1f 01 00 00 00 00 00     ................
	...
     b34:	f0 01 bc 07 0e 0e 03 18 03 18 01 10 01 10 03 18     ................
     b44:	03 18 0e 0e bc 07 f0 01 00 00 00 00 00 00 00 00     ................
	...
     bc4:	1c 0c 3e 18 63 18 61 10 c1 10 c3 19 83 0f 06 07     ..>.c.a.........
	...
     c0c:	01 00 ff 07 ff 0f 01 0c 00 18 00 10 00 10 00 18     ................
     c1c:	01 0c ff 0f ff 07 01 00 00 00 00 00 00 00 00 00     ................
	...
     c54:	01 00 03 00 1f 00 f9 00 c0 07 00 0e 01 1f e3 03     ................
     c64:	7f 00 7f 00 e3 03 01 1f 00 0e c0 07 f9 00 1f 00     ................
     c74:	03 00 01 00 00 00 00 00 00 00 00 00 00 00 00 00     ................
	...
     ce4:	00 0e 60 1f 34 19 b0 19 b0 19 f4 0f e0 1f 00 18     ..`.4...........
	...
     d2c:	00 18 00 18 00 00 00 00 00 00 00 00 00 00 00 00     ................
	...
     d50:	20 00 f6 07 f6 0f 00 1c 00 18 20 18 f6 0f f6 1f      ......... .....
     d60:	00 18 00 10 00 00 00 00 00 00 00 00 00 00 00 00     ................
     d70:	00 00 00 00                                         ....

00000d74 <snooze>:
     d74:	80 06 80 05 80 04 00 01 90 01 50 01 30 01 10 01     ..........P.0...
     d84:	60 00 71 00 59 00 4d 00 47 00 43 00                 `.q.Y.M.G.C.

00000d90 <speaker>:
     d90:	00 ff 01 80 ff 03 80 ff 03 80 ff 03 80 ff 03 80     ................
     da0:	ff 03 80 ff 03 80 ff 03 80 ff 03 c0 ff 07 e0 ff     ................
     db0:	0f f0 ff 1f f8 ff 3f fc ff 3f fe ff 7f fe ff ff     ......?..?......
     dc0:	fe ff ff 00 00 00 80 00 01 80 ef 03 80 ff 03 10     ................
     dd0:	fe 08 70 00 1c f0 83 1f c6 ff 47 1e ff f1 7c 00     ..p.......G...|.
     de0:	7c f8 c3 3f e0 ff 0f 00 ff 01 00 00 00              |..?.........

00000ded <rose>:
     ded:	00 01 80 03 b0 1b 70 1d f0 1e f0 1e f0 1e f0 1e     ......p.........
     dfd:	f0 1e 70 0e 40 07 80 01 80 01 80 01 80 01 80 01     ..p.@...........
     e0d:	80 01 80 01 80 c1 80 71 80 79 80 3d 80 1d 80 0f     .......q.y.=....
     e1d:	80 03 80 01 80 01 80 01 80 01 80 01 83 01 8e 01     ................
     e2d:	9e 01 bc 01 b8 01 f0 01 c0 01 80 01 80 01 80 01     ................
     e3d:	80 01 80 01 80 01 80 01 80 01                       ..........

00000e47 <herzKleinOffen>:
     e47:	0e 1f 3f 7e 00 00 7e 3f 1f 0e                       ..?~..~?..

00000e51 <herzKlein>:
     e51:	00 0e 1f 3f 7e 7e 3f 1f 0e 00                       ...?~~?...

00000e5b <herz>:
     e5b:	00 00 70 00 fc 01 fc 03 fe 07 fe 0f fc 1f f8 3f     ..p............?
     e6b:	fc 1f fe 0f fe 07 fc 03 fc 01 70 00 00 00 00 00     ..........p.....

00000e7b <haken>:
     e7b:	00 02 00 07 00 1f 00 7e 00 78 00 78 00 3e 00 0f     .......~.x.x.>..
     e8b:	80 07 c0 01 e0 00 30 00 18 00 0c 00 06 00 02 00     ......0.........
	...

00000e9d <note>:
     e9d:	00 40 00 e0 00 f0 00 f0 fe 7f 1e 00 10 00 20 00     .@............ .
     ead:	c0 07 00                                            ...

00000eb0 <__ctors_end>:
     eb0:	11 24       	eor	r1, r1
     eb2:	1f be       	out	0x3f, r1	; 63
     eb4:	cf ef       	ldi	r28, 0xFF	; 255
     eb6:	d8 e0       	ldi	r29, 0x08	; 8
     eb8:	de bf       	out	0x3e, r29	; 62
     eba:	cd bf       	out	0x3d, r28	; 61

00000ebc <__do_copy_data>:
     ebc:	11 e0       	ldi	r17, 0x01	; 1
     ebe:	a0 e0       	ldi	r26, 0x00	; 0
     ec0:	b1 e0       	ldi	r27, 0x01	; 1
     ec2:	e2 e3       	ldi	r30, 0x32	; 50
     ec4:	f5 e4       	ldi	r31, 0x45	; 69
     ec6:	02 c0       	rjmp	.+4      	; 0xecc <__do_copy_data+0x10>
     ec8:	05 90       	lpm	r0, Z+
     eca:	0d 92       	st	X+, r0
     ecc:	a2 36       	cpi	r26, 0x62	; 98
     ece:	b1 07       	cpc	r27, r17
     ed0:	d9 f7       	brne	.-10     	; 0xec8 <__do_copy_data+0xc>

00000ed2 <__do_clear_bss>:
     ed2:	25 e0       	ldi	r18, 0x05	; 5
     ed4:	a2 e6       	ldi	r26, 0x62	; 98
     ed6:	b1 e0       	ldi	r27, 0x01	; 1
     ed8:	01 c0       	rjmp	.+2      	; 0xedc <.do_clear_bss_start>

00000eda <.do_clear_bss_loop>:
     eda:	1d 92       	st	X+, r1

00000edc <.do_clear_bss_start>:
     edc:	ac 3d       	cpi	r26, 0xDC	; 220
     ede:	b2 07       	cpc	r27, r18
     ee0:	e1 f7       	brne	.-8      	; 0xeda <.do_clear_bss_loop>
     ee2:	0e 94 98 20 	call	0x4130	; 0x4130 <main>
     ee6:	0c 94 97 22 	jmp	0x452e	; 0x452e <_exit>

00000eea <__bad_interrupt>:
     eea:	0c 94 00 00 	jmp	0	; 0x0 <__vectors>

00000eee <sendCmd>:
	sendCmd(0x00);
	sendCmd(0xAF);
}

void sendCmd(uint8_t data) {
	LCD_CS = 0;
     eee:	44 98       	cbi	0x08, 4	; 8
     ef0:	28 e0       	ldi	r18, 0x08	; 8
     ef2:	30 e0       	ldi	r19, 0x00	; 0
	for (int i = 0; i<8; i++) {
		LCD_CLK = 0;
     ef4:	41 98       	cbi	0x08, 1	; 8
		LCD_D = 0;
     ef6:	40 98       	cbi	0x08, 0	; 8
		if (data & 0x80) {
     ef8:	88 23       	and	r24, r24
     efa:	0c f4       	brge	.+2      	; 0xefe <sendCmd+0x10>
			LCD_D = 1;
     efc:	40 9a       	sbi	0x08, 0	; 8
		}
		LCD_CLK = 1;
     efe:	41 9a       	sbi	0x08, 1	; 8
		data = data<<1;
     f00:	88 0f       	add	r24, r24
     f02:	21 50       	subi	r18, 0x01	; 1
     f04:	31 09       	sbc	r19, r1
	sendCmd(0xAF);
}

void sendCmd(uint8_t data) {
	LCD_CS = 0;
	for (int i = 0; i<8; i++) {
     f06:	b1 f7       	brne	.-20     	; 0xef4 <sendCmd+0x6>
			LCD_D = 1;
		}
		LCD_CLK = 1;
		data = data<<1;
	}
	LCD_CS = 1;
     f08:	44 9a       	sbi	0x08, 4	; 8
	LCD_D = 0;
     f0a:	40 98       	cbi	0x08, 0	; 8
     f0c:	08 95       	ret

00000f0e <lcdInit>:
*/
#include "EADOGL128_commands.h"


void lcdInit() {
	sendCmd(0x40);
     f0e:	80 e4       	ldi	r24, 0x40	; 64
     f10:	0e 94 77 07 	call	0xeee	; 0xeee <sendCmd>
	sendCmd(0xA1);
     f14:	81 ea       	ldi	r24, 0xA1	; 161
     f16:	0e 94 77 07 	call	0xeee	; 0xeee <sendCmd>
	sendCmd(0xC0);
     f1a:	80 ec       	ldi	r24, 0xC0	; 192
     f1c:	0e 94 77 07 	call	0xeee	; 0xeee <sendCmd>
	sendCmd(0xA6);
     f20:	86 ea       	ldi	r24, 0xA6	; 166
     f22:	0e 94 77 07 	call	0xeee	; 0xeee <sendCmd>
	sendCmd(0xA2);
     f26:	82 ea       	ldi	r24, 0xA2	; 162
     f28:	0e 94 77 07 	call	0xeee	; 0xeee <sendCmd>
	sendCmd(0x2F);
     f2c:	8f e2       	ldi	r24, 0x2F	; 47
     f2e:	0e 94 77 07 	call	0xeee	; 0xeee <sendCmd>
	sendCmd(0xF8);
     f32:	88 ef       	ldi	r24, 0xF8	; 248
     f34:	0e 94 77 07 	call	0xeee	; 0xeee <sendCmd>
	sendCmd(0x00);
     f38:	80 e0       	ldi	r24, 0x00	; 0
     f3a:	0e 94 77 07 	call	0xeee	; 0xeee <sendCmd>
	sendCmd(0x27);
     f3e:	87 e2       	ldi	r24, 0x27	; 39
     f40:	0e 94 77 07 	call	0xeee	; 0xeee <sendCmd>
	sendCmd(0x81);
     f44:	81 e8       	ldi	r24, 0x81	; 129
     f46:	0e 94 77 07 	call	0xeee	; 0xeee <sendCmd>
	sendCmd(0x16);//0x10 lt. Datenblatt//meins: 16
     f4a:	86 e1       	ldi	r24, 0x16	; 22
     f4c:	0e 94 77 07 	call	0xeee	; 0xeee <sendCmd>
	sendCmd(0xAC);
     f50:	8c ea       	ldi	r24, 0xAC	; 172
     f52:	0e 94 77 07 	call	0xeee	; 0xeee <sendCmd>
	sendCmd(0x00);
     f56:	80 e0       	ldi	r24, 0x00	; 0
     f58:	0e 94 77 07 	call	0xeee	; 0xeee <sendCmd>
	sendCmd(0xAF);
     f5c:	8f ea       	ldi	r24, 0xAF	; 175
     f5e:	0e 94 77 07 	call	0xeee	; 0xeee <sendCmd>
     f62:	08 95       	ret

00000f64 <sendData>:
	LCD_CS = 1;
	LCD_D = 0;
}

void sendData(uint8_t data) {
	LCD_A0 = 1;
     f64:	42 9a       	sbi	0x08, 2	; 8
	sendCmd(data);
     f66:	0e 94 77 07 	call	0xeee	; 0xeee <sendCmd>
	LCD_A0 = 0;
     f6a:	42 98       	cbi	0x08, 2	; 8
     f6c:	08 95       	ret

00000f6e <setColumn>:
}

void setColumn(uint8_t col) {
     f6e:	cf 93       	push	r28
     f70:	c8 2f       	mov	r28, r24
	sendCmd(0x0 | (col & 0xF));
     f72:	8f 70       	andi	r24, 0x0F	; 15
     f74:	0e 94 77 07 	call	0xeee	; 0xeee <sendCmd>
	sendCmd(0x10 | ((col>>4) & 0xF));
     f78:	8c 2f       	mov	r24, r28
     f7a:	82 95       	swap	r24
     f7c:	8f 70       	andi	r24, 0x0F	; 15
     f7e:	80 61       	ori	r24, 0x10	; 16
     f80:	0e 94 77 07 	call	0xeee	; 0xeee <sendCmd>
}
     f84:	cf 91       	pop	r28
     f86:	08 95       	ret

00000f88 <setPage>:


void setPage(uint8_t p) {
	sendCmd(0xB0 + p);
     f88:	80 55       	subi	r24, 0x50	; 80
     f8a:	0e 94 77 07 	call	0xeee	; 0xeee <sendCmd>
     f8e:	08 95       	ret

00000f90 <clear_LCD>:
}

void clear_LCD() {
     f90:	1f 93       	push	r17
     f92:	cf 93       	push	r28
     f94:	df 93       	push	r29
     f96:	d0 e0       	ldi	r29, 0x00	; 0
     f98:	10 e0       	ldi	r17, 0x00	; 0
     f9a:	0f c0       	rjmp	.+30     	; 0xfba <clear_LCD+0x2a>
	for(int x = 0; x<128; x++){
		for(int y = 0; y<8; y++){
			setPage(y);
     f9c:	8c 2f       	mov	r24, r28
     f9e:	0e 94 c4 07 	call	0xf88	; 0xf88 <setPage>
			setColumn(x);
     fa2:	8d 2f       	mov	r24, r29
     fa4:	0e 94 b7 07 	call	0xf6e	; 0xf6e <setColumn>
			sendData(0);
     fa8:	81 2f       	mov	r24, r17
     faa:	0e 94 b2 07 	call	0xf64	; 0xf64 <sendData>
     fae:	cf 5f       	subi	r28, 0xFF	; 255
	sendCmd(0xB0 + p);
}

void clear_LCD() {
	for(int x = 0; x<128; x++){
		for(int y = 0; y<8; y++){
     fb0:	c8 30       	cpi	r28, 0x08	; 8
     fb2:	a1 f7       	brne	.-24     	; 0xf9c <clear_LCD+0xc>
     fb4:	df 5f       	subi	r29, 0xFF	; 255
void setPage(uint8_t p) {
	sendCmd(0xB0 + p);
}

void clear_LCD() {
	for(int x = 0; x<128; x++){
     fb6:	d0 38       	cpi	r29, 0x80	; 128
     fb8:	11 f0       	breq	.+4      	; 0xfbe <clear_LCD+0x2e>

void setPage(uint8_t p) {
	sendCmd(0xB0 + p);
}

void clear_LCD() {
     fba:	c1 2f       	mov	r28, r17
     fbc:	ef cf       	rjmp	.-34     	; 0xf9c <clear_LCD+0xc>
			sendData(0);
			//reset_Pixel(x, y);
		}
	}
	//update_LCD();
}
     fbe:	df 91       	pop	r29
     fc0:	cf 91       	pop	r28
     fc2:	1f 91       	pop	r17
     fc4:	08 95       	ret

00000fc6 <set_pixel>:

void set_pixel(uint8_t x, uint8_t y) {
	int page = y/8;
     fc6:	26 2f       	mov	r18, r22
     fc8:	26 95       	lsr	r18
     fca:	26 95       	lsr	r18
     fcc:	26 95       	lsr	r18
     fce:	30 e0       	ldi	r19, 0x00	; 0
	int pixel = y-page*8;
	uint8_t setzMaske = (1<<pixel);
	pixelMatrix[x] [page] |= setzMaske;//stdDisplay [x] [page] |= setzMaske;
     fd0:	f9 01       	movw	r30, r18
     fd2:	98 e0       	ldi	r25, 0x08	; 8
     fd4:	89 9f       	mul	r24, r25
     fd6:	e0 0d       	add	r30, r0
     fd8:	f1 1d       	adc	r31, r1
     fda:	11 24       	eor	r1, r1
     fdc:	e4 52       	subi	r30, 0x24	; 36
     fde:	fe 4f       	sbci	r31, 0xFE	; 254
	//update_LCD();
}

void set_pixel(uint8_t x, uint8_t y) {
	int page = y/8;
	int pixel = y-page*8;
     fe0:	31 95       	neg	r19
     fe2:	21 95       	neg	r18
     fe4:	31 09       	sbc	r19, r1
     fe6:	22 0f       	add	r18, r18
     fe8:	33 1f       	adc	r19, r19
     fea:	22 0f       	add	r18, r18
     fec:	33 1f       	adc	r19, r19
     fee:	22 0f       	add	r18, r18
     ff0:	33 1f       	adc	r19, r19
     ff2:	26 0f       	add	r18, r22
     ff4:	31 1d       	adc	r19, r1
	uint8_t setzMaske = (1<<pixel);
     ff6:	81 e0       	ldi	r24, 0x01	; 1
     ff8:	90 e0       	ldi	r25, 0x00	; 0
     ffa:	02 c0       	rjmp	.+4      	; 0x1000 <set_pixel+0x3a>
     ffc:	88 0f       	add	r24, r24
     ffe:	99 1f       	adc	r25, r25
    1000:	2a 95       	dec	r18
    1002:	e2 f7       	brpl	.-8      	; 0xffc <set_pixel+0x36>
	pixelMatrix[x] [page] |= setzMaske;//stdDisplay [x] [page] |= setzMaske;
    1004:	90 81       	ld	r25, Z
    1006:	89 2b       	or	r24, r25
    1008:	80 83       	st	Z, r24
    100a:	08 95       	ret

0000100c <reset_pixel>:
}

void reset_pixel(uint8_t x, uint8_t y) {
	int page = y/8;
    100c:	26 2f       	mov	r18, r22
    100e:	26 95       	lsr	r18
    1010:	26 95       	lsr	r18
    1012:	26 95       	lsr	r18
    1014:	30 e0       	ldi	r19, 0x00	; 0
	int pixel = y-page*8;
	uint8_t setzMaske =~ (1<<pixel);
	pixelMatrix [x] [page] &= setzMaske;
    1016:	f9 01       	movw	r30, r18
    1018:	98 e0       	ldi	r25, 0x08	; 8
    101a:	89 9f       	mul	r24, r25
    101c:	e0 0d       	add	r30, r0
    101e:	f1 1d       	adc	r31, r1
    1020:	11 24       	eor	r1, r1
    1022:	e4 52       	subi	r30, 0x24	; 36
    1024:	fe 4f       	sbci	r31, 0xFE	; 254
	pixelMatrix[x] [page] |= setzMaske;//stdDisplay [x] [page] |= setzMaske;
}

void reset_pixel(uint8_t x, uint8_t y) {
	int page = y/8;
	int pixel = y-page*8;
    1026:	31 95       	neg	r19
    1028:	21 95       	neg	r18
    102a:	31 09       	sbc	r19, r1
    102c:	22 0f       	add	r18, r18
    102e:	33 1f       	adc	r19, r19
    1030:	22 0f       	add	r18, r18
    1032:	33 1f       	adc	r19, r19
    1034:	22 0f       	add	r18, r18
    1036:	33 1f       	adc	r19, r19
    1038:	26 0f       	add	r18, r22
    103a:	31 1d       	adc	r19, r1
	uint8_t setzMaske =~ (1<<pixel);
    103c:	81 e0       	ldi	r24, 0x01	; 1
    103e:	90 e0       	ldi	r25, 0x00	; 0
    1040:	02 c0       	rjmp	.+4      	; 0x1046 <reset_pixel+0x3a>
    1042:	88 0f       	add	r24, r24
    1044:	99 1f       	adc	r25, r25
    1046:	2a 95       	dec	r18
    1048:	e2 f7       	brpl	.-8      	; 0x1042 <reset_pixel+0x36>
    104a:	80 95       	com	r24
	pixelMatrix [x] [page] &= setzMaske;
    104c:	90 81       	ld	r25, Z
    104e:	89 23       	and	r24, r25
    1050:	80 83       	st	Z, r24
    1052:	08 95       	ret

00001054 <update_LCD>:
}

void update_LCD() {
    1054:	df 92       	push	r13
    1056:	ef 92       	push	r14
    1058:	ff 92       	push	r15
    105a:	0f 93       	push	r16
    105c:	1f 93       	push	r17
    105e:	cf 93       	push	r28
    1060:	df 93       	push	r29
    1062:	0f 2e       	mov	r0, r31
    1064:	fc ed       	ldi	r31, 0xDC	; 220
    1066:	ef 2e       	mov	r14, r31
    1068:	f1 e0       	ldi	r31, 0x01	; 1
    106a:	ff 2e       	mov	r15, r31
    106c:	f0 2d       	mov	r31, r0
    106e:	d0 e0       	ldi	r29, 0x00	; 0
    1070:	d1 2c       	mov	r13, r1
    1072:	14 c0       	rjmp	.+40     	; 0x109c <update_LCD+0x48>
	for(int col = 0; col<128; col++){
		for(int page = 0; page<8; page++){
			setPage(page);
    1074:	8c 2f       	mov	r24, r28
    1076:	0e 94 c4 07 	call	0xf88	; 0xf88 <setPage>
			setColumn(col);
    107a:	8d 2f       	mov	r24, r29
    107c:	0e 94 b7 07 	call	0xf6e	; 0xf6e <setColumn>
			sendData(pixelMatrix[col][page]);//sendData(stdDisplay[col][page]);
    1080:	f8 01       	movw	r30, r16
    1082:	81 91       	ld	r24, Z+
    1084:	8f 01       	movw	r16, r30
    1086:	0e 94 b2 07 	call	0xf64	; 0xf64 <sendData>
    108a:	cf 5f       	subi	r28, 0xFF	; 255
	pixelMatrix [x] [page] &= setzMaske;
}

void update_LCD() {
	for(int col = 0; col<128; col++){
		for(int page = 0; page<8; page++){
    108c:	c8 30       	cpi	r28, 0x08	; 8
    108e:	91 f7       	brne	.-28     	; 0x1074 <update_LCD+0x20>
    1090:	f8 e0       	ldi	r31, 0x08	; 8
    1092:	ef 0e       	add	r14, r31
    1094:	f1 1c       	adc	r15, r1
    1096:	df 5f       	subi	r29, 0xFF	; 255
	uint8_t setzMaske =~ (1<<pixel);
	pixelMatrix [x] [page] &= setzMaske;
}

void update_LCD() {
	for(int col = 0; col<128; col++){
    1098:	d0 38       	cpi	r29, 0x80	; 128
    109a:	19 f0       	breq	.+6      	; 0x10a2 <update_LCD+0x4e>
	int pixel = y-page*8;
	uint8_t setzMaske =~ (1<<pixel);
	pixelMatrix [x] [page] &= setzMaske;
}

void update_LCD() {
    109c:	87 01       	movw	r16, r14
    109e:	cd 2d       	mov	r28, r13
    10a0:	e9 cf       	rjmp	.-46     	; 0x1074 <update_LCD+0x20>
			setPage(page);
			setColumn(col);
			sendData(pixelMatrix[col][page]);//sendData(stdDisplay[col][page]);
		}
	}
}
    10a2:	df 91       	pop	r29
    10a4:	cf 91       	pop	r28
    10a6:	1f 91       	pop	r17
    10a8:	0f 91       	pop	r16
    10aa:	ff 90       	pop	r15
    10ac:	ef 90       	pop	r14
    10ae:	df 90       	pop	r13
    10b0:	08 95       	ret

000010b2 <print_symbol>:

int print_symbol(int height, int width,  uint8_t symbol[height/8*width], int xStart, int yStart) {
    10b2:	2f 92       	push	r2
    10b4:	3f 92       	push	r3
    10b6:	4f 92       	push	r4
    10b8:	5f 92       	push	r5
    10ba:	6f 92       	push	r6
    10bc:	7f 92       	push	r7
    10be:	8f 92       	push	r8
    10c0:	9f 92       	push	r9
    10c2:	af 92       	push	r10
    10c4:	bf 92       	push	r11
    10c6:	cf 92       	push	r12
    10c8:	df 92       	push	r13
    10ca:	ef 92       	push	r14
    10cc:	ff 92       	push	r15
    10ce:	0f 93       	push	r16
    10d0:	1f 93       	push	r17
    10d2:	cf 93       	push	r28
    10d4:	df 93       	push	r29
    10d6:	00 d0       	rcall	.+0      	; 0x10d8 <print_symbol+0x26>
    10d8:	00 d0       	rcall	.+0      	; 0x10da <print_symbol+0x28>
    10da:	1f 92       	push	r1
    10dc:	cd b7       	in	r28, 0x3d	; 61
    10de:	de b7       	in	r29, 0x3e	; 62
    10e0:	7c 01       	movw	r14, r24
    10e2:	3b 01       	movw	r6, r22
    10e4:	4a 01       	movw	r8, r20
    10e6:	3b 83       	std	Y+3, r19	; 0x03
    10e8:	2a 83       	std	Y+2, r18	; 0x02
	for(int x=0; x<width; x++){
    10ea:	16 16       	cp	r1, r22
    10ec:	17 06       	cpc	r1, r23
    10ee:	0c f0       	brlt	.+2      	; 0x10f2 <print_symbol+0x40>
    10f0:	58 c0       	rjmp	.+176    	; 0x11a2 <print_symbol+0xf0>
    10f2:	2a 80       	ldd	r2, Y+2	; 0x02
    10f4:	2c 01       	movw	r4, r24
    10f6:	c1 2c       	mov	r12, r1
    10f8:	d1 2c       	mov	r13, r1
    10fa:	a1 2c       	mov	r10, r1
    10fc:	b1 2c       	mov	r11, r1
    10fe:	09 83       	std	Y+1, r16	; 0x01
    1100:	3a c0       	rjmp	.+116    	; 0x1176 <print_symbol+0xc4>
		for(int y=0; y<height; y++){
			if((symbol[x*height/8+y/8]) & (1<<(y%8))){
    1102:	c8 01       	movw	r24, r16
    1104:	11 23       	and	r17, r17
    1106:	0c f4       	brge	.+2      	; 0x110a <print_symbol+0x58>
    1108:	07 96       	adiw	r24, 0x07	; 7
    110a:	95 95       	asr	r25
    110c:	87 95       	ror	r24
    110e:	95 95       	asr	r25
    1110:	87 95       	ror	r24
    1112:	95 95       	asr	r25
    1114:	87 95       	ror	r24
    1116:	ec 81       	ldd	r30, Y+4	; 0x04
    1118:	fd 81       	ldd	r31, Y+5	; 0x05
    111a:	e8 0f       	add	r30, r24
    111c:	f9 1f       	adc	r31, r25
    111e:	80 81       	ld	r24, Z
    1120:	90 e0       	ldi	r25, 0x00	; 0
    1122:	98 01       	movw	r18, r16
    1124:	27 70       	andi	r18, 0x07	; 7
    1126:	30 78       	andi	r19, 0x80	; 128
    1128:	33 23       	and	r19, r19
    112a:	34 f4       	brge	.+12     	; 0x1138 <print_symbol+0x86>
    112c:	21 50       	subi	r18, 0x01	; 1
    112e:	31 09       	sbc	r19, r1
    1130:	28 6f       	ori	r18, 0xF8	; 248
    1132:	3f 6f       	ori	r19, 0xFF	; 255
    1134:	2f 5f       	subi	r18, 0xFF	; 255
    1136:	3f 4f       	sbci	r19, 0xFF	; 255
    1138:	02 c0       	rjmp	.+4      	; 0x113e <print_symbol+0x8c>
    113a:	95 95       	asr	r25
    113c:	87 95       	ror	r24
    113e:	2a 95       	dec	r18
    1140:	e2 f7       	brpl	.-8      	; 0x113a <print_symbol+0x88>
    1142:	80 ff       	sbrs	r24, 0
    1144:	05 c0       	rjmp	.+10     	; 0x1150 <print_symbol+0x9e>
				set_pixel(xStart+x,yStart+y);
    1146:	63 2d       	mov	r22, r3
    1148:	82 2d       	mov	r24, r2
    114a:	0e 94 e3 07 	call	0xfc6	; 0xfc6 <set_pixel>
    114e:	04 c0       	rjmp	.+8      	; 0x1158 <print_symbol+0xa6>
				} else {
				reset_pixel(xStart+x,yStart+y);
    1150:	63 2d       	mov	r22, r3
    1152:	82 2d       	mov	r24, r2
    1154:	0e 94 06 08 	call	0x100c	; 0x100c <reset_pixel>
	}
}

int print_symbol(int height, int width,  uint8_t symbol[height/8*width], int xStart, int yStart) {
	for(int x=0; x<width; x++){
		for(int y=0; y<height; y++){
    1158:	0f 5f       	subi	r16, 0xFF	; 255
    115a:	1f 4f       	sbci	r17, 0xFF	; 255
    115c:	33 94       	inc	r3
    115e:	0e 15       	cp	r16, r14
    1160:	1f 05       	cpc	r17, r15
    1162:	79 f6       	brne	.-98     	; 0x1102 <print_symbol+0x50>
		}
	}
}

int print_symbol(int height, int width,  uint8_t symbol[height/8*width], int xStart, int yStart) {
	for(int x=0; x<width; x++){
    1164:	2f ef       	ldi	r18, 0xFF	; 255
    1166:	a2 1a       	sub	r10, r18
    1168:	b2 0a       	sbc	r11, r18
    116a:	23 94       	inc	r2
    116c:	c4 0c       	add	r12, r4
    116e:	d5 1c       	adc	r13, r5
    1170:	a6 14       	cp	r10, r6
    1172:	b7 04       	cpc	r11, r7
    1174:	b1 f0       	breq	.+44     	; 0x11a2 <print_symbol+0xf0>
		for(int y=0; y<height; y++){
    1176:	1e 14       	cp	r1, r14
    1178:	1f 04       	cpc	r1, r15
    117a:	a4 f7       	brge	.-24     	; 0x1164 <print_symbol+0xb2>
			if((symbol[x*height/8+y/8]) & (1<<(y%8))){
    117c:	c6 01       	movw	r24, r12
    117e:	dd 20       	and	r13, r13
    1180:	0c f4       	brge	.+2      	; 0x1184 <print_symbol+0xd2>
    1182:	07 96       	adiw	r24, 0x07	; 7
    1184:	95 95       	asr	r25
    1186:	87 95       	ror	r24
    1188:	95 95       	asr	r25
    118a:	87 95       	ror	r24
    118c:	95 95       	asr	r25
    118e:	87 95       	ror	r24
    1190:	39 80       	ldd	r3, Y+1	; 0x01
    1192:	00 e0       	ldi	r16, 0x00	; 0
    1194:	10 e0       	ldi	r17, 0x00	; 0
    1196:	fc 01       	movw	r30, r24
    1198:	e8 0d       	add	r30, r8
    119a:	f9 1d       	adc	r31, r9
    119c:	fd 83       	std	Y+5, r31	; 0x05
    119e:	ec 83       	std	Y+4, r30	; 0x04
    11a0:	b0 cf       	rjmp	.-160    	; 0x1102 <print_symbol+0x50>
				reset_pixel(xStart+x,yStart+y);
			}
		}
	}
	return xStart + width;
}
    11a2:	8a 81       	ldd	r24, Y+2	; 0x02
    11a4:	9b 81       	ldd	r25, Y+3	; 0x03
    11a6:	86 0d       	add	r24, r6
    11a8:	97 1d       	adc	r25, r7
    11aa:	0f 90       	pop	r0
    11ac:	0f 90       	pop	r0
    11ae:	0f 90       	pop	r0
    11b0:	0f 90       	pop	r0
    11b2:	0f 90       	pop	r0
    11b4:	df 91       	pop	r29
    11b6:	cf 91       	pop	r28
    11b8:	1f 91       	pop	r17
    11ba:	0f 91       	pop	r16
    11bc:	ff 90       	pop	r15
    11be:	ef 90       	pop	r14
    11c0:	df 90       	pop	r13
    11c2:	cf 90       	pop	r12
    11c4:	bf 90       	pop	r11
    11c6:	af 90       	pop	r10
    11c8:	9f 90       	pop	r9
    11ca:	8f 90       	pop	r8
    11cc:	7f 90       	pop	r7
    11ce:	6f 90       	pop	r6
    11d0:	5f 90       	pop	r5
    11d2:	4f 90       	pop	r4
    11d4:	3f 90       	pop	r3
    11d6:	2f 90       	pop	r2
    11d8:	08 95       	ret

000011da <print_letter>:



void print_letter(int height, int width, int asciiCode, int xStart, int yStart) {
    11da:	3f 92       	push	r3
    11dc:	4f 92       	push	r4
    11de:	5f 92       	push	r5
    11e0:	6f 92       	push	r6
    11e2:	7f 92       	push	r7
    11e4:	8f 92       	push	r8
    11e6:	9f 92       	push	r9
    11e8:	af 92       	push	r10
    11ea:	bf 92       	push	r11
    11ec:	cf 92       	push	r12
    11ee:	df 92       	push	r13
    11f0:	ef 92       	push	r14
    11f2:	ff 92       	push	r15
    11f4:	0f 93       	push	r16
    11f6:	1f 93       	push	r17
    11f8:	cf 93       	push	r28
    11fa:	df 93       	push	r29
	for(int x = 0; x<width; x++) {
    11fc:	16 16       	cp	r1, r22
    11fe:	17 06       	cpc	r1, r23
    1200:	0c f0       	brlt	.+2      	; 0x1204 <print_letter+0x2a>
    1202:	4f c0       	rjmp	.+158    	; 0x12a2 <print_letter+0xc8>
    1204:	7c 01       	movw	r14, r24
    1206:	52 2e       	mov	r5, r18
    1208:	3b 01       	movw	r6, r22
    120a:	66 0c       	add	r6, r6
    120c:	77 1c       	adc	r7, r7
    120e:	81 2c       	mov	r8, r1
    1210:	91 2c       	mov	r9, r1
		for(int y = 0; y<height; y++) {
			if(pgm_read_byte(&alphabet[asciiCode][x*2+y/8]) & (1<<(y%8))){
    1212:	31 2c       	mov	r3, r1
    1214:	41 2c       	mov	r4, r1
    1216:	84 e2       	ldi	r24, 0x24	; 36
    1218:	84 9f       	mul	r24, r20
    121a:	50 01       	movw	r10, r0
    121c:	85 9f       	mul	r24, r21
    121e:	b0 0c       	add	r11, r0
    1220:	11 24       	eor	r1, r1
    1222:	37 c0       	rjmp	.+110    	; 0x1292 <print_letter+0xb8>
    1224:	fe 01       	movw	r30, r28
    1226:	dd 23       	and	r29, r29
    1228:	0c f4       	brge	.+2      	; 0x122c <print_letter+0x52>
    122a:	37 96       	adiw	r30, 0x07	; 7
    122c:	f5 95       	asr	r31
    122e:	e7 95       	ror	r30
    1230:	f5 95       	asr	r31
    1232:	e7 95       	ror	r30
    1234:	f5 95       	asr	r31
    1236:	e7 95       	ror	r30
    1238:	ec 0d       	add	r30, r12
    123a:	fd 1d       	adc	r31, r13
    123c:	ea 0d       	add	r30, r10
    123e:	fb 1d       	adc	r31, r11
    1240:	ec 56       	subi	r30, 0x6C	; 108
    1242:	fa 4f       	sbci	r31, 0xFA	; 250
    1244:	e4 91       	lpm	r30, Z
    1246:	f0 e0       	ldi	r31, 0x00	; 0
    1248:	ce 01       	movw	r24, r28
    124a:	87 70       	andi	r24, 0x07	; 7
    124c:	90 78       	andi	r25, 0x80	; 128
    124e:	99 23       	and	r25, r25
    1250:	24 f4       	brge	.+8      	; 0x125a <print_letter+0x80>
    1252:	01 97       	sbiw	r24, 0x01	; 1
    1254:	88 6f       	ori	r24, 0xF8	; 248
    1256:	9f 6f       	ori	r25, 0xFF	; 255
    1258:	01 96       	adiw	r24, 0x01	; 1
    125a:	02 c0       	rjmp	.+4      	; 0x1260 <print_letter+0x86>
    125c:	f5 95       	asr	r31
    125e:	e7 95       	ror	r30
    1260:	8a 95       	dec	r24
    1262:	e2 f7       	brpl	.-8      	; 0x125c <print_letter+0x82>
    1264:	e0 ff       	sbrs	r30, 0
    1266:	05 c0       	rjmp	.+10     	; 0x1272 <print_letter+0x98>
				set_pixel(xStart+x,yStart+y);
    1268:	61 2f       	mov	r22, r17
    126a:	85 2d       	mov	r24, r5
    126c:	0e 94 e3 07 	call	0xfc6	; 0xfc6 <set_pixel>
    1270:	04 c0       	rjmp	.+8      	; 0x127a <print_letter+0xa0>
				} else {
				reset_pixel(xStart+x,yStart+y);
    1272:	61 2f       	mov	r22, r17
    1274:	85 2d       	mov	r24, r5
    1276:	0e 94 06 08 	call	0x100c	; 0x100c <reset_pixel>



void print_letter(int height, int width, int asciiCode, int xStart, int yStart) {
	for(int x = 0; x<width; x++) {
		for(int y = 0; y<height; y++) {
    127a:	21 96       	adiw	r28, 0x01	; 1
    127c:	1f 5f       	subi	r17, 0xFF	; 255
    127e:	ce 15       	cp	r28, r14
    1280:	df 05       	cpc	r29, r15
    1282:	81 f6       	brne	.-96     	; 0x1224 <print_letter+0x4a>
    1284:	53 94       	inc	r5
    1286:	82 e0       	ldi	r24, 0x02	; 2
    1288:	88 0e       	add	r8, r24
    128a:	91 1c       	adc	r9, r1
}



void print_letter(int height, int width, int asciiCode, int xStart, int yStart) {
	for(int x = 0; x<width; x++) {
    128c:	86 14       	cp	r8, r6
    128e:	97 04       	cpc	r9, r7
    1290:	41 f0       	breq	.+16     	; 0x12a2 <print_letter+0xc8>
		for(int y = 0; y<height; y++) {
    1292:	1e 14       	cp	r1, r14
    1294:	1f 04       	cpc	r1, r15
    1296:	b4 f7       	brge	.-20     	; 0x1284 <print_letter+0xaa>
			if(pgm_read_byte(&alphabet[asciiCode][x*2+y/8]) & (1<<(y%8))){
    1298:	64 01       	movw	r12, r8
    129a:	10 2f       	mov	r17, r16
    129c:	c3 2d       	mov	r28, r3
    129e:	d4 2d       	mov	r29, r4
    12a0:	c1 cf       	rjmp	.-126    	; 0x1224 <print_letter+0x4a>
				} else {
				reset_pixel(xStart+x,yStart+y);
			}
		}
	}
}
    12a2:	df 91       	pop	r29
    12a4:	cf 91       	pop	r28
    12a6:	1f 91       	pop	r17
    12a8:	0f 91       	pop	r16
    12aa:	ff 90       	pop	r15
    12ac:	ef 90       	pop	r14
    12ae:	df 90       	pop	r13
    12b0:	cf 90       	pop	r12
    12b2:	bf 90       	pop	r11
    12b4:	af 90       	pop	r10
    12b6:	9f 90       	pop	r9
    12b8:	8f 90       	pop	r8
    12ba:	7f 90       	pop	r7
    12bc:	6f 90       	pop	r6
    12be:	5f 90       	pop	r5
    12c0:	4f 90       	pop	r4
    12c2:	3f 90       	pop	r3
    12c4:	08 95       	ret

000012c6 <print_smallNumber>:

void print_smallNumber(int xStart, int yStart, int number) {
    12c6:	2f 92       	push	r2
    12c8:	3f 92       	push	r3
    12ca:	4f 92       	push	r4
    12cc:	5f 92       	push	r5
    12ce:	6f 92       	push	r6
    12d0:	7f 92       	push	r7
    12d2:	8f 92       	push	r8
    12d4:	9f 92       	push	r9
    12d6:	af 92       	push	r10
    12d8:	bf 92       	push	r11
    12da:	cf 92       	push	r12
    12dc:	df 92       	push	r13
    12de:	ef 92       	push	r14
    12e0:	ff 92       	push	r15
    12e2:	0f 93       	push	r16
    12e4:	1f 93       	push	r17
    12e6:	cf 93       	push	r28
    12e8:	df 93       	push	r29
	for(int x = 0; x<pgm_read_byte(&smallNumberWidth[number]); x++) {
    12ea:	9a 01       	movw	r18, r20
    12ec:	2e 53       	subi	r18, 0x3E	; 62
    12ee:	3b 4f       	sbci	r19, 0xFB	; 251
    12f0:	49 01       	movw	r8, r18
    12f2:	f9 01       	movw	r30, r18
    12f4:	94 91       	lpm	r25, Z
    12f6:	99 23       	and	r25, r25
    12f8:	09 f4       	brne	.+2      	; 0x12fc <print_smallNumber+0x36>
    12fa:	5e c0       	rjmp	.+188    	; 0x13b8 <print_smallNumber+0xf2>
    12fc:	68 2e       	mov	r6, r24
    12fe:	c1 2c       	mov	r12, r1
    1300:	d1 2c       	mov	r13, r1
    1302:	a1 2c       	mov	r10, r1
    1304:	b1 2c       	mov	r11, r1
    1306:	26 2e       	mov	r2, r22
    1308:	68 94       	set
    130a:	55 24       	eor	r5, r5
    130c:	54 f8       	bld	r5, 4
    130e:	56 0e       	add	r5, r22
		for(int y = 0; y<SMALL_NUMBER_HEIGHT; y++) {
			if(pgm_read_byte(&smallNumber[number][x*SMALL_NUMBER_HEIGHT/8+y/8]) & (1<<(y%8))){
    1310:	31 2c       	mov	r3, r1
    1312:	41 2c       	mov	r4, r1
    1314:	84 e1       	ldi	r24, 0x14	; 20
    1316:	84 9f       	mul	r24, r20
    1318:	70 01       	movw	r14, r0
    131a:	85 9f       	mul	r24, r21
    131c:	f0 0c       	add	r15, r0
    131e:	11 24       	eor	r1, r1
    1320:	3c c0       	rjmp	.+120    	; 0x139a <print_smallNumber+0xd4>
    1322:	fe 01       	movw	r30, r28
    1324:	dd 23       	and	r29, r29
    1326:	0c f4       	brge	.+2      	; 0x132a <print_smallNumber+0x64>
    1328:	37 96       	adiw	r30, 0x07	; 7
    132a:	f5 95       	asr	r31
    132c:	e7 95       	ror	r30
    132e:	f5 95       	asr	r31
    1330:	e7 95       	ror	r30
    1332:	f5 95       	asr	r31
    1334:	e7 95       	ror	r30
    1336:	e0 0f       	add	r30, r16
    1338:	f1 1f       	adc	r31, r17
    133a:	ee 0d       	add	r30, r14
    133c:	ff 1d       	adc	r31, r15
    133e:	e4 53       	subi	r30, 0x34	; 52
    1340:	fb 4f       	sbci	r31, 0xFB	; 251
    1342:	e4 91       	lpm	r30, Z
    1344:	f0 e0       	ldi	r31, 0x00	; 0
    1346:	ce 01       	movw	r24, r28
    1348:	87 70       	andi	r24, 0x07	; 7
    134a:	90 78       	andi	r25, 0x80	; 128
    134c:	99 23       	and	r25, r25
    134e:	24 f4       	brge	.+8      	; 0x1358 <print_smallNumber+0x92>
    1350:	01 97       	sbiw	r24, 0x01	; 1
    1352:	88 6f       	ori	r24, 0xF8	; 248
    1354:	9f 6f       	ori	r25, 0xFF	; 255
    1356:	01 96       	adiw	r24, 0x01	; 1
    1358:	02 c0       	rjmp	.+4      	; 0x135e <print_smallNumber+0x98>
    135a:	f5 95       	asr	r31
    135c:	e7 95       	ror	r30
    135e:	8a 95       	dec	r24
    1360:	e2 f7       	brpl	.-8      	; 0x135a <print_smallNumber+0x94>
    1362:	e0 ff       	sbrs	r30, 0
    1364:	05 c0       	rjmp	.+10     	; 0x1370 <print_smallNumber+0xaa>
				set_pixel(xStart+x,yStart+y);
    1366:	67 2d       	mov	r22, r7
    1368:	86 2d       	mov	r24, r6
    136a:	0e 94 e3 07 	call	0xfc6	; 0xfc6 <set_pixel>
    136e:	04 c0       	rjmp	.+8      	; 0x1378 <print_smallNumber+0xb2>
				} else {
				reset_pixel(xStart+x,yStart+y);
    1370:	67 2d       	mov	r22, r7
    1372:	86 2d       	mov	r24, r6
    1374:	0e 94 06 08 	call	0x100c	; 0x100c <reset_pixel>
	}
}

void print_smallNumber(int xStart, int yStart, int number) {
	for(int x = 0; x<pgm_read_byte(&smallNumberWidth[number]); x++) {
		for(int y = 0; y<SMALL_NUMBER_HEIGHT; y++) {
    1378:	21 96       	adiw	r28, 0x01	; 1
    137a:	73 94       	inc	r7
    137c:	75 10       	cpse	r7, r5
    137e:	d1 cf       	rjmp	.-94     	; 0x1322 <print_smallNumber+0x5c>
		}
	}
}

void print_smallNumber(int xStart, int yStart, int number) {
	for(int x = 0; x<pgm_read_byte(&smallNumberWidth[number]); x++) {
    1380:	ff ef       	ldi	r31, 0xFF	; 255
    1382:	af 1a       	sub	r10, r31
    1384:	bf 0a       	sbc	r11, r31
    1386:	f4 01       	movw	r30, r8
    1388:	84 91       	lpm	r24, Z
    138a:	f0 e1       	ldi	r31, 0x10	; 16
    138c:	cf 0e       	add	r12, r31
    138e:	d1 1c       	adc	r13, r1
    1390:	63 94       	inc	r6
    1392:	90 e0       	ldi	r25, 0x00	; 0
    1394:	a8 16       	cp	r10, r24
    1396:	b9 06       	cpc	r11, r25
    1398:	7c f4       	brge	.+30     	; 0x13b8 <print_smallNumber+0xf2>
		for(int y = 0; y<SMALL_NUMBER_HEIGHT; y++) {
			if(pgm_read_byte(&smallNumber[number][x*SMALL_NUMBER_HEIGHT/8+y/8]) & (1<<(y%8))){
    139a:	86 01       	movw	r16, r12
    139c:	dd 20       	and	r13, r13
    139e:	14 f4       	brge	.+4      	; 0x13a4 <print_smallNumber+0xde>
    13a0:	09 5f       	subi	r16, 0xF9	; 249
    13a2:	1f 4f       	sbci	r17, 0xFF	; 255
    13a4:	15 95       	asr	r17
    13a6:	07 95       	ror	r16
    13a8:	15 95       	asr	r17
    13aa:	07 95       	ror	r16
    13ac:	15 95       	asr	r17
    13ae:	07 95       	ror	r16
    13b0:	72 2c       	mov	r7, r2
    13b2:	c3 2d       	mov	r28, r3
    13b4:	d4 2d       	mov	r29, r4
    13b6:	b5 cf       	rjmp	.-150    	; 0x1322 <print_smallNumber+0x5c>
				} else {
				reset_pixel(xStart+x,yStart+y);
			}
		}
	}
}
    13b8:	df 91       	pop	r29
    13ba:	cf 91       	pop	r28
    13bc:	1f 91       	pop	r17
    13be:	0f 91       	pop	r16
    13c0:	ff 90       	pop	r15
    13c2:	ef 90       	pop	r14
    13c4:	df 90       	pop	r13
    13c6:	cf 90       	pop	r12
    13c8:	bf 90       	pop	r11
    13ca:	af 90       	pop	r10
    13cc:	9f 90       	pop	r9
    13ce:	8f 90       	pop	r8
    13d0:	7f 90       	pop	r7
    13d2:	6f 90       	pop	r6
    13d4:	5f 90       	pop	r5
    13d6:	4f 90       	pop	r4
    13d8:	3f 90       	pop	r3
    13da:	2f 90       	pop	r2
    13dc:	08 95       	ret

000013de <print_bigNumber>:

void print_bigNumber(int xStart, int yStart, int number) {
    13de:	2f 92       	push	r2
    13e0:	3f 92       	push	r3
    13e2:	4f 92       	push	r4
    13e4:	5f 92       	push	r5
    13e6:	6f 92       	push	r6
    13e8:	7f 92       	push	r7
    13ea:	8f 92       	push	r8
    13ec:	9f 92       	push	r9
    13ee:	af 92       	push	r10
    13f0:	bf 92       	push	r11
    13f2:	cf 92       	push	r12
    13f4:	df 92       	push	r13
    13f6:	ef 92       	push	r14
    13f8:	ff 92       	push	r15
    13fa:	0f 93       	push	r16
    13fc:	1f 93       	push	r17
    13fe:	cf 93       	push	r28
    1400:	df 93       	push	r29
	for(int x = 0; x<pgm_read_byte(&bigNumberWidth[number]); x++) {
    1402:	9a 01       	movw	r18, r20
    1404:	28 56       	subi	r18, 0x68	; 104
    1406:	3e 4f       	sbci	r19, 0xFE	; 254
    1408:	49 01       	movw	r8, r18
    140a:	f9 01       	movw	r30, r18
    140c:	94 91       	lpm	r25, Z
    140e:	99 23       	and	r25, r25
    1410:	09 f4       	brne	.+2      	; 0x1414 <print_bigNumber+0x36>
    1412:	5e c0       	rjmp	.+188    	; 0x14d0 <print_bigNumber+0xf2>
    1414:	68 2e       	mov	r6, r24
    1416:	c1 2c       	mov	r12, r1
    1418:	d1 2c       	mov	r13, r1
    141a:	a1 2c       	mov	r10, r1
    141c:	b1 2c       	mov	r11, r1
    141e:	26 2e       	mov	r2, r22
    1420:	68 94       	set
    1422:	55 24       	eor	r5, r5
    1424:	55 f8       	bld	r5, 5
    1426:	56 0e       	add	r5, r22
		for(int y = 0; y<BIG_NUMBER_HEIGHT; y++) {
			if(pgm_read_byte(&bigNumber[number][x*BIG_NUMBER_HEIGHT/8+y/8]) & (1<<(y%8))){
    1428:	31 2c       	mov	r3, r1
    142a:	41 2c       	mov	r4, r1
    142c:	80 e5       	ldi	r24, 0x50	; 80
    142e:	84 9f       	mul	r24, r20
    1430:	70 01       	movw	r14, r0
    1432:	85 9f       	mul	r24, r21
    1434:	f0 0c       	add	r15, r0
    1436:	11 24       	eor	r1, r1
    1438:	3c c0       	rjmp	.+120    	; 0x14b2 <print_bigNumber+0xd4>
    143a:	fe 01       	movw	r30, r28
    143c:	dd 23       	and	r29, r29
    143e:	0c f4       	brge	.+2      	; 0x1442 <print_bigNumber+0x64>
    1440:	37 96       	adiw	r30, 0x07	; 7
    1442:	f5 95       	asr	r31
    1444:	e7 95       	ror	r30
    1446:	f5 95       	asr	r31
    1448:	e7 95       	ror	r30
    144a:	f5 95       	asr	r31
    144c:	e7 95       	ror	r30
    144e:	e0 0f       	add	r30, r16
    1450:	f1 1f       	adc	r31, r17
    1452:	ee 0d       	add	r30, r14
    1454:	ff 1d       	adc	r31, r15
    1456:	ee 55       	subi	r30, 0x5E	; 94
    1458:	fe 4f       	sbci	r31, 0xFE	; 254
    145a:	e4 91       	lpm	r30, Z
    145c:	f0 e0       	ldi	r31, 0x00	; 0
    145e:	ce 01       	movw	r24, r28
    1460:	87 70       	andi	r24, 0x07	; 7
    1462:	90 78       	andi	r25, 0x80	; 128
    1464:	99 23       	and	r25, r25
    1466:	24 f4       	brge	.+8      	; 0x1470 <print_bigNumber+0x92>
    1468:	01 97       	sbiw	r24, 0x01	; 1
    146a:	88 6f       	ori	r24, 0xF8	; 248
    146c:	9f 6f       	ori	r25, 0xFF	; 255
    146e:	01 96       	adiw	r24, 0x01	; 1
    1470:	02 c0       	rjmp	.+4      	; 0x1476 <print_bigNumber+0x98>
    1472:	f5 95       	asr	r31
    1474:	e7 95       	ror	r30
    1476:	8a 95       	dec	r24
    1478:	e2 f7       	brpl	.-8      	; 0x1472 <print_bigNumber+0x94>
    147a:	e0 ff       	sbrs	r30, 0
    147c:	05 c0       	rjmp	.+10     	; 0x1488 <print_bigNumber+0xaa>
				set_pixel(xStart+x,yStart+y);
    147e:	67 2d       	mov	r22, r7
    1480:	86 2d       	mov	r24, r6
    1482:	0e 94 e3 07 	call	0xfc6	; 0xfc6 <set_pixel>
    1486:	04 c0       	rjmp	.+8      	; 0x1490 <print_bigNumber+0xb2>
				} else {
				reset_pixel(xStart+x,yStart+y);
    1488:	67 2d       	mov	r22, r7
    148a:	86 2d       	mov	r24, r6
    148c:	0e 94 06 08 	call	0x100c	; 0x100c <reset_pixel>
	}
}

void print_bigNumber(int xStart, int yStart, int number) {
	for(int x = 0; x<pgm_read_byte(&bigNumberWidth[number]); x++) {
		for(int y = 0; y<BIG_NUMBER_HEIGHT; y++) {
    1490:	21 96       	adiw	r28, 0x01	; 1
    1492:	73 94       	inc	r7
    1494:	75 10       	cpse	r7, r5
    1496:	d1 cf       	rjmp	.-94     	; 0x143a <print_bigNumber+0x5c>
		}
	}
}

void print_bigNumber(int xStart, int yStart, int number) {
	for(int x = 0; x<pgm_read_byte(&bigNumberWidth[number]); x++) {
    1498:	ff ef       	ldi	r31, 0xFF	; 255
    149a:	af 1a       	sub	r10, r31
    149c:	bf 0a       	sbc	r11, r31
    149e:	f4 01       	movw	r30, r8
    14a0:	84 91       	lpm	r24, Z
    14a2:	f0 e2       	ldi	r31, 0x20	; 32
    14a4:	cf 0e       	add	r12, r31
    14a6:	d1 1c       	adc	r13, r1
    14a8:	63 94       	inc	r6
    14aa:	90 e0       	ldi	r25, 0x00	; 0
    14ac:	a8 16       	cp	r10, r24
    14ae:	b9 06       	cpc	r11, r25
    14b0:	7c f4       	brge	.+30     	; 0x14d0 <print_bigNumber+0xf2>
		for(int y = 0; y<BIG_NUMBER_HEIGHT; y++) {
			if(pgm_read_byte(&bigNumber[number][x*BIG_NUMBER_HEIGHT/8+y/8]) & (1<<(y%8))){
    14b2:	86 01       	movw	r16, r12
    14b4:	dd 20       	and	r13, r13
    14b6:	14 f4       	brge	.+4      	; 0x14bc <print_bigNumber+0xde>
    14b8:	09 5f       	subi	r16, 0xF9	; 249
    14ba:	1f 4f       	sbci	r17, 0xFF	; 255
    14bc:	15 95       	asr	r17
    14be:	07 95       	ror	r16
    14c0:	15 95       	asr	r17
    14c2:	07 95       	ror	r16
    14c4:	15 95       	asr	r17
    14c6:	07 95       	ror	r16
    14c8:	72 2c       	mov	r7, r2
    14ca:	c3 2d       	mov	r28, r3
    14cc:	d4 2d       	mov	r29, r4
    14ce:	b5 cf       	rjmp	.-150    	; 0x143a <print_bigNumber+0x5c>
				} else {
				reset_pixel(xStart+x,yStart+y);
			}
		}
	}
    14d0:	df 91       	pop	r29
    14d2:	cf 91       	pop	r28
    14d4:	1f 91       	pop	r17
    14d6:	0f 91       	pop	r16
    14d8:	ff 90       	pop	r15
    14da:	ef 90       	pop	r14
    14dc:	df 90       	pop	r13
    14de:	cf 90       	pop	r12
    14e0:	bf 90       	pop	r11
    14e2:	af 90       	pop	r10
    14e4:	9f 90       	pop	r9
    14e6:	8f 90       	pop	r8
    14e8:	7f 90       	pop	r7
    14ea:	6f 90       	pop	r6
    14ec:	5f 90       	pop	r5
    14ee:	4f 90       	pop	r4
    14f0:	3f 90       	pop	r3
    14f2:	2f 90       	pop	r2
    14f4:	08 95       	ret

000014f6 <push_button>:
	_delay_ms(PUSH_DURATION);//Pause vor nchstem Tastendruck erzwingen
}

void push_button(uint8_t button){
	
	switch(button){
    14f6:	84 30       	cpi	r24, 0x04	; 4
    14f8:	99 f0       	breq	.+38     	; 0x1520 <push_button+0x2a>
    14fa:	28 f4       	brcc	.+10     	; 0x1506 <push_button+0x10>
    14fc:	81 30       	cpi	r24, 0x01	; 1
    14fe:	51 f0       	breq	.+20     	; 0x1514 <push_button+0x1e>
    1500:	83 30       	cpi	r24, 0x03	; 3
    1502:	59 f0       	breq	.+22     	; 0x151a <push_button+0x24>
    1504:	08 95       	ret
    1506:	87 30       	cpi	r24, 0x07	; 7
    1508:	89 f0       	breq	.+34     	; 0x152c <push_button+0x36>
    150a:	88 30       	cpi	r24, 0x08	; 8
    150c:	89 f0       	breq	.+34     	; 0x1530 <push_button+0x3a>
    150e:	86 30       	cpi	r24, 0x06	; 6
    1510:	81 f4       	brne	.+32     	; 0x1532 <push_button+0x3c>
    1512:	09 c0       	rjmp	.+18     	; 0x1526 <push_button+0x30>
		case MP3_T1: 
			DDRD |= (1<<PORTD2);//Pin als Ausgang setzen
    1514:	52 9a       	sbi	0x0a, 2	; 10
			PORTD &= ~(1<<PORTD2);//Pin auf GND setzen
    1516:	5a 98       	cbi	0x0b, 2	; 11
			break;
    1518:	08 95       	ret
		case MP3_T3:
			DDRD |= (1<<PORTD1);
    151a:	51 9a       	sbi	0x0a, 1	; 10
			PORTD &= ~(1<<PORTD1);
    151c:	59 98       	cbi	0x0b, 1	; 11
			break;
    151e:	08 95       	ret
		case MP3_T4:
			DDRD |= (1<<PORTD3);
    1520:	53 9a       	sbi	0x0a, 3	; 10
			PORTD &= ~(1<<PORTD3);
    1522:	5b 98       	cbi	0x0b, 3	; 11
			break;
    1524:	08 95       	ret
		case MP3_ONOFF:
			DDRD |= (1<<PORTD0);
    1526:	50 9a       	sbi	0x0a, 0	; 10
			PORTD |= (1<<PORTD0);
    1528:	58 9a       	sbi	0x0b, 0	; 11
			break;
    152a:	08 95       	ret
		case AMP_MUTE:
			//DDRD |= (1<<PORTD7);
			PORTD |= (1<<PORTD7);	
    152c:	5f 9a       	sbi	0x0b, 7	; 11
			break;
    152e:	08 95       	ret
		case AMP_STBY:
			//DDRB |= (1<<PORTB0);
			PORTB |= (1<<PORTB0);				
    1530:	28 9a       	sbi	0x05, 0	; 5
    1532:	08 95       	ret

00001534 <amp_on>:
	amp_off();
	//mute_off();
}

void amp_on(){
	push_button(AMP_STBY);
    1534:	88 e0       	ldi	r24, 0x08	; 8
    1536:	0e 94 7b 0a 	call	0x14f6	; 0x14f6 <push_button>
	#else
		//round up by default
		__ticks_dc = (uint32_t)(ceil(fabs(__tmp)));
	#endif

	__builtin_avr_delay_cycles(__ticks_dc);
    153a:	2f ef       	ldi	r18, 0xFF	; 255
    153c:	81 ee       	ldi	r24, 0xE1	; 225
    153e:	94 e0       	ldi	r25, 0x04	; 4
    1540:	21 50       	subi	r18, 0x01	; 1
    1542:	80 40       	sbci	r24, 0x00	; 0
    1544:	90 40       	sbci	r25, 0x00	; 0
    1546:	e1 f7       	brne	.-8      	; 0x1540 <amp_on+0xc>
    1548:	00 c0       	rjmp	.+0      	; 0x154a <amp_on+0x16>
    154a:	00 00       	nop
    154c:	08 95       	ret

0000154e <mute_off>:
void mute_on(){
	release_button(AMP_MUTE);
}

void mute_off(){
	push_button(AMP_MUTE);
    154e:	87 e0       	ldi	r24, 0x07	; 7
    1550:	0e 94 7b 0a 	call	0x14f6	; 0x14f6 <push_button>
    1554:	08 95       	ret

00001556 <release_button>:
			PORTB |= (1<<PORTB0);				
	}
}

void release_button(uint8_t button){
	switch(button){
    1556:	84 30       	cpi	r24, 0x04	; 4
    1558:	99 f0       	breq	.+38     	; 0x1580 <release_button+0x2a>
    155a:	28 f4       	brcc	.+10     	; 0x1566 <release_button+0x10>
    155c:	81 30       	cpi	r24, 0x01	; 1
    155e:	51 f0       	breq	.+20     	; 0x1574 <release_button+0x1e>
    1560:	83 30       	cpi	r24, 0x03	; 3
    1562:	59 f0       	breq	.+22     	; 0x157a <release_button+0x24>
    1564:	08 95       	ret
    1566:	87 30       	cpi	r24, 0x07	; 7
    1568:	89 f0       	breq	.+34     	; 0x158c <release_button+0x36>
    156a:	88 30       	cpi	r24, 0x08	; 8
    156c:	89 f0       	breq	.+34     	; 0x1590 <release_button+0x3a>
    156e:	86 30       	cpi	r24, 0x06	; 6
    1570:	81 f4       	brne	.+32     	; 0x1592 <release_button+0x3c>
    1572:	09 c0       	rjmp	.+18     	; 0x1586 <release_button+0x30>
		case MP3_T1:
			PORTD |= (1<<PORTD2);//Pin sicherheitshalber auf eins
    1574:	5a 9a       	sbi	0x0b, 2	; 11
			DDRD &= ~(1<<PORTD2);//Pin als Eingang setzen
    1576:	52 98       	cbi	0x0a, 2	; 10
			break;	
    1578:	08 95       	ret
		case MP3_T3:
			PORTD |= (1<<PORTD1);
    157a:	59 9a       	sbi	0x0b, 1	; 11
			DDRD &= ~(1<<PORTD1);
    157c:	51 98       	cbi	0x0a, 1	; 10
			break;	
    157e:	08 95       	ret
		case MP3_T4:
			PORTD |= (1<<PORTD3);
    1580:	5b 9a       	sbi	0x0b, 3	; 11
			DDRD &= ~(1<<PORTD3);
    1582:	53 98       	cbi	0x0a, 3	; 10
			break;	
    1584:	08 95       	ret
		case MP3_ONOFF:
			PORTD &= ~(1<<PORTD0);
    1586:	58 98       	cbi	0x0b, 0	; 11
			DDRD &= ~(1<<PORTD0);
    1588:	50 98       	cbi	0x0a, 0	; 10
			break;
    158a:	08 95       	ret
		case AMP_MUTE:
			PORTD &= ~(1<<PORTD7);
    158c:	5f 98       	cbi	0x0b, 7	; 11
			//DDRD &= ~(1<<PORTD7);
			break;
    158e:	08 95       	ret
		case AMP_STBY:
			PORTB &= ~(1<<PORTB0);
    1590:	28 98       	cbi	0x05, 0	; 5
    1592:	08 95       	ret

00001594 <amp_off>:
	push_button(AMP_STBY);
	_delay_ms(200);
}

void amp_off(){
	release_button(AMP_STBY);
    1594:	88 e0       	ldi	r24, 0x08	; 8
    1596:	0e 94 ab 0a 	call	0x1556	; 0x1556 <release_button>
    159a:	08 95       	ret

0000159c <mute_on>:
}

void mute_on(){
	release_button(AMP_MUTE);
    159c:	87 e0       	ldi	r24, 0x07	; 7
    159e:	0e 94 ab 0a 	call	0x1556	; 0x1556 <release_button>
    15a2:	08 95       	ret

000015a4 <boot_amp>:
*/
#include "mp3.h"
#include "sbit.h"

void boot_amp(){//Um Knack beim Einschalten zu verhindern
	mute_on();
    15a4:	0e 94 ce 0a 	call	0x159c	; 0x159c <mute_on>
	amp_on();
    15a8:	0e 94 9a 0a 	call	0x1534	; 0x1534 <amp_on>
    15ac:	2f ef       	ldi	r18, 0xFF	; 255
    15ae:	81 ee       	ldi	r24, 0xE1	; 225
    15b0:	94 e0       	ldi	r25, 0x04	; 4
    15b2:	21 50       	subi	r18, 0x01	; 1
    15b4:	80 40       	sbci	r24, 0x00	; 0
    15b6:	90 40       	sbci	r25, 0x00	; 0
    15b8:	e1 f7       	brne	.-8      	; 0x15b2 <boot_amp+0xe>
    15ba:	00 c0       	rjmp	.+0      	; 0x15bc <boot_amp+0x18>
    15bc:	00 00       	nop
	_delay_ms(200);
	mute_off();
    15be:	0e 94 a7 0a 	call	0x154e	; 0x154e <mute_off>
    15c2:	08 95       	ret

000015c4 <shutdown_amp>:
}

void shutdown_amp(){
	mute_on();
    15c4:	0e 94 ce 0a 	call	0x159c	; 0x159c <mute_on>
    15c8:	2f ef       	ldi	r18, 0xFF	; 255
    15ca:	81 ee       	ldi	r24, 0xE1	; 225
    15cc:	94 e0       	ldi	r25, 0x04	; 4
    15ce:	21 50       	subi	r18, 0x01	; 1
    15d0:	80 40       	sbci	r24, 0x00	; 0
    15d2:	90 40       	sbci	r25, 0x00	; 0
    15d4:	e1 f7       	brne	.-8      	; 0x15ce <shutdown_amp+0xa>
    15d6:	00 c0       	rjmp	.+0      	; 0x15d8 <shutdown_amp+0x14>
    15d8:	00 00       	nop
	_delay_ms(200);
	amp_off();
    15da:	0e 94 ca 0a 	call	0x1594	; 0x1594 <amp_off>
    15de:	08 95       	ret

000015e0 <mp3Player_onoff>:
void mute_off(){
	push_button(AMP_MUTE);
}

void mp3Player_onoff(){
	push_button(MP3_ONOFF);
    15e0:	86 e0       	ldi	r24, 0x06	; 6
    15e2:	0e 94 7b 0a 	call	0x14f6	; 0x14f6 <push_button>
    15e6:	2f ef       	ldi	r18, 0xFF	; 255
    15e8:	83 ed       	ldi	r24, 0xD3	; 211
    15ea:	90 e3       	ldi	r25, 0x30	; 48
    15ec:	21 50       	subi	r18, 0x01	; 1
    15ee:	80 40       	sbci	r24, 0x00	; 0
    15f0:	90 40       	sbci	r25, 0x00	; 0
    15f2:	e1 f7       	brne	.-8      	; 0x15ec <mp3Player_onoff+0xc>
    15f4:	00 c0       	rjmp	.+0      	; 0x15f6 <mp3Player_onoff+0x16>
    15f6:	00 00       	nop
	_delay_ms(PUSH_DURATION_LONG);
	release_button(MP3_ONOFF);
    15f8:	86 e0       	ldi	r24, 0x06	; 6
    15fa:	0e 94 ab 0a 	call	0x1556	; 0x1556 <release_button>
    15fe:	2f ef       	ldi	r18, 0xFF	; 255
    1600:	81 e1       	ldi	r24, 0x11	; 17
    1602:	9a e7       	ldi	r25, 0x7A	; 122
    1604:	21 50       	subi	r18, 0x01	; 1
    1606:	80 40       	sbci	r24, 0x00	; 0
    1608:	90 40       	sbci	r25, 0x00	; 0
    160a:	e1 f7       	brne	.-8      	; 0x1604 <mp3Player_onoff+0x24>
    160c:	00 c0       	rjmp	.+0      	; 0x160e <mp3Player_onoff+0x2e>
    160e:	00 00       	nop
    1610:	08 95       	ret

00001612 <next_song>:
	_delay_ms(PUSH_DURATION_LONG+3000);//Pause vor nchstem Tastendruck erzwingen
}

void next_song(){
	push_button(MP3_T1);
    1612:	81 e0       	ldi	r24, 0x01	; 1
    1614:	0e 94 7b 0a 	call	0x14f6	; 0x14f6 <push_button>
    1618:	2f e7       	ldi	r18, 0x7F	; 127
    161a:	85 eb       	ldi	r24, 0xB5	; 181
    161c:	91 e0       	ldi	r25, 0x01	; 1
    161e:	21 50       	subi	r18, 0x01	; 1
    1620:	80 40       	sbci	r24, 0x00	; 0
    1622:	90 40       	sbci	r25, 0x00	; 0
    1624:	e1 f7       	brne	.-8      	; 0x161e <next_song+0xc>
    1626:	00 c0       	rjmp	.+0      	; 0x1628 <next_song+0x16>
    1628:	00 00       	nop
	_delay_ms(PUSH_DURATION);
	release_button(MP3_T1);
    162a:	81 e0       	ldi	r24, 0x01	; 1
    162c:	0e 94 ab 0a 	call	0x1556	; 0x1556 <release_button>
    1630:	2f e7       	ldi	r18, 0x7F	; 127
    1632:	85 eb       	ldi	r24, 0xB5	; 181
    1634:	91 e0       	ldi	r25, 0x01	; 1
    1636:	21 50       	subi	r18, 0x01	; 1
    1638:	80 40       	sbci	r24, 0x00	; 0
    163a:	90 40       	sbci	r25, 0x00	; 0
    163c:	e1 f7       	brne	.-8      	; 0x1636 <next_song+0x24>
    163e:	00 c0       	rjmp	.+0      	; 0x1640 <next_song+0x2e>
    1640:	00 00       	nop
    1642:	08 95       	ret

00001644 <play_pause>:
	_delay_ms(PUSH_DURATION);//Pause vor nchstem Tastendruck erzwingen
}

void play_pause(){
	push_button(MP3_ONOFF);
    1644:	86 e0       	ldi	r24, 0x06	; 6
    1646:	0e 94 7b 0a 	call	0x14f6	; 0x14f6 <push_button>
    164a:	2f e7       	ldi	r18, 0x7F	; 127
    164c:	85 eb       	ldi	r24, 0xB5	; 181
    164e:	91 e0       	ldi	r25, 0x01	; 1
    1650:	21 50       	subi	r18, 0x01	; 1
    1652:	80 40       	sbci	r24, 0x00	; 0
    1654:	90 40       	sbci	r25, 0x00	; 0
    1656:	e1 f7       	brne	.-8      	; 0x1650 <play_pause+0xc>
    1658:	00 c0       	rjmp	.+0      	; 0x165a <play_pause+0x16>
    165a:	00 00       	nop
	_delay_ms(PUSH_DURATION);
	release_button(MP3_ONOFF);
    165c:	86 e0       	ldi	r24, 0x06	; 6
    165e:	0e 94 ab 0a 	call	0x1556	; 0x1556 <release_button>
    1662:	2f e7       	ldi	r18, 0x7F	; 127
    1664:	85 eb       	ldi	r24, 0xB5	; 181
    1666:	91 e0       	ldi	r25, 0x01	; 1
    1668:	21 50       	subi	r18, 0x01	; 1
    166a:	80 40       	sbci	r24, 0x00	; 0
    166c:	90 40       	sbci	r25, 0x00	; 0
    166e:	e1 f7       	brne	.-8      	; 0x1668 <play_pause+0x24>
    1670:	00 c0       	rjmp	.+0      	; 0x1672 <play_pause+0x2e>
    1672:	00 00       	nop
    1674:	08 95       	ret

00001676 <volume>:
	_delay_ms(PUSH_DURATION);//Pause vor nchstem Tastendruck erzwingen
}

void volume(bool direction){
	if(direction == UP){
    1676:	88 23       	and	r24, r24
    1678:	81 f0       	breq	.+32     	; 0x169a <volume+0x24>
		push_button(MP3_T4);
    167a:	84 e0       	ldi	r24, 0x04	; 4
    167c:	0e 94 7b 0a 	call	0x14f6	; 0x14f6 <push_button>
    1680:	2f e7       	ldi	r18, 0x7F	; 127
    1682:	85 eb       	ldi	r24, 0xB5	; 181
    1684:	91 e0       	ldi	r25, 0x01	; 1
    1686:	21 50       	subi	r18, 0x01	; 1
    1688:	80 40       	sbci	r24, 0x00	; 0
    168a:	90 40       	sbci	r25, 0x00	; 0
    168c:	e1 f7       	brne	.-8      	; 0x1686 <volume+0x10>
    168e:	00 c0       	rjmp	.+0      	; 0x1690 <volume+0x1a>
    1690:	00 00       	nop
		_delay_ms(PUSH_DURATION);
		release_button(MP3_T4);
    1692:	84 e0       	ldi	r24, 0x04	; 4
    1694:	0e 94 ab 0a 	call	0x1556	; 0x1556 <release_button>
    1698:	0f c0       	rjmp	.+30     	; 0x16b8 <volume+0x42>
	} else {
		push_button(MP3_T3);
    169a:	83 e0       	ldi	r24, 0x03	; 3
    169c:	0e 94 7b 0a 	call	0x14f6	; 0x14f6 <push_button>
    16a0:	2f e7       	ldi	r18, 0x7F	; 127
    16a2:	85 eb       	ldi	r24, 0xB5	; 181
    16a4:	91 e0       	ldi	r25, 0x01	; 1
    16a6:	21 50       	subi	r18, 0x01	; 1
    16a8:	80 40       	sbci	r24, 0x00	; 0
    16aa:	90 40       	sbci	r25, 0x00	; 0
    16ac:	e1 f7       	brne	.-8      	; 0x16a6 <volume+0x30>
    16ae:	00 c0       	rjmp	.+0      	; 0x16b0 <volume+0x3a>
    16b0:	00 00       	nop
		_delay_ms(PUSH_DURATION);
		release_button(MP3_T3);
    16b2:	83 e0       	ldi	r24, 0x03	; 3
    16b4:	0e 94 ab 0a 	call	0x1556	; 0x1556 <release_button>
    16b8:	2f e7       	ldi	r18, 0x7F	; 127
    16ba:	85 eb       	ldi	r24, 0xB5	; 181
    16bc:	91 e0       	ldi	r25, 0x01	; 1
    16be:	21 50       	subi	r18, 0x01	; 1
    16c0:	80 40       	sbci	r24, 0x00	; 0
    16c2:	90 40       	sbci	r25, 0x00	; 0
    16c4:	e1 f7       	brne	.-8      	; 0x16be <volume+0x48>
    16c6:	00 c0       	rjmp	.+0      	; 0x16c8 <volume+0x52>
    16c8:	00 00       	nop
    16ca:	08 95       	ret

000016cc <__vector_3>:
		goodNight();
	}
	
}

ISR(PCINT0_vect){//Drehencoder oder Lichtschalter wurde gedrckt
    16cc:	1f 92       	push	r1
    16ce:	0f 92       	push	r0
    16d0:	0f b6       	in	r0, 0x3f	; 63
    16d2:	0f 92       	push	r0
    16d4:	11 24       	eor	r1, r1
    16d6:	5f 93       	push	r21
    16d8:	6f 93       	push	r22
    16da:	7f 93       	push	r23
    16dc:	8f 93       	push	r24
    16de:	9f 93       	push	r25
    16e0:	af 93       	push	r26
    16e2:	bf 93       	push	r27
		if((PINB & (1<<PINB2))){ //Drehencoder gedrckt
    16e4:	1a 9b       	sbis	0x03, 2	; 3
    16e6:	14 c0       	rjmp	.+40     	; 0x1710 <__vector_3+0x44>
			btn_drehenc_pushed = true;
    16e8:	81 e0       	ldi	r24, 0x01	; 1
    16ea:	80 93 6e 01 	sts	0x016E, r24
			//btn_light_pushed = true;//DEBUG
			if(light_status==ON){//Leuchtdauer verlngern, falls Licht an ist
    16ee:	80 91 62 01 	lds	r24, 0x0162
    16f2:	88 23       	and	r24, r24
    16f4:	69 f0       	breq	.+26     	; 0x1710 <__vector_3+0x44>
				light_sec_off = (seconds + LIGHT_ON_DURATION)%60;
    16f6:	80 91 80 01 	lds	r24, 0x0180
    16fa:	90 91 81 01 	lds	r25, 0x0181
    16fe:	03 96       	adiw	r24, 0x03	; 3
    1700:	6c e3       	ldi	r22, 0x3C	; 60
    1702:	70 e0       	ldi	r23, 0x00	; 0
    1704:	0e 94 6f 22 	call	0x44de	; 0x44de <__divmodhi4>
    1708:	90 93 d1 01 	sts	0x01D1, r25
    170c:	80 93 d0 01 	sts	0x01D0, r24
			}
		} 
		if((PINB & (1<<PINB1))) {//Lichtschalter gedrckt
    1710:	19 9b       	sbis	0x03, 1	; 3
    1712:	03 c0       	rjmp	.+6      	; 0x171a <__vector_3+0x4e>
				btn_light_pushed = true;//Flag wird in main() abgearbeitet
    1714:	81 e0       	ldi	r24, 0x01	; 1
    1716:	80 93 6d 01 	sts	0x016D, r24
		}
	}
    171a:	bf 91       	pop	r27
    171c:	af 91       	pop	r26
    171e:	9f 91       	pop	r25
    1720:	8f 91       	pop	r24
    1722:	7f 91       	pop	r23
    1724:	6f 91       	pop	r22
    1726:	5f 91       	pop	r21
    1728:	0f 90       	pop	r0
    172a:	0f be       	out	0x3f, r0	; 63
    172c:	0f 90       	pop	r0
    172e:	1f 90       	pop	r1
    1730:	18 95       	reti

00001732 <__vector_5>:


ISR(PCINT2_vect){
    1732:	1f 92       	push	r1
    1734:	0f 92       	push	r0
    1736:	0f b6       	in	r0, 0x3f	; 63
    1738:	0f 92       	push	r0
    173a:	11 24       	eor	r1, r1
    173c:	5f 93       	push	r21
    173e:	6f 93       	push	r22
    1740:	7f 93       	push	r23
    1742:	8f 93       	push	r24
    1744:	9f 93       	push	r25
    1746:	af 93       	push	r26
    1748:	bf 93       	push	r27
	bool A = (PIND & (1<<PIND5));
    174a:	89 b1       	in	r24, 0x09	; 9
	bool B = (PIND & (1<<PIND6));
    174c:	99 b1       	in	r25, 0x09	; 9
    174e:	96 fb       	bst	r25, 6
    1750:	99 27       	eor	r25, r25
    1752:	90 f9       	bld	r25, 0
		}
	}


ISR(PCINT2_vect){
	bool A = (PIND & (1<<PIND5));
    1754:	85 fb       	bst	r24, 5
    1756:	88 27       	eor	r24, r24
    1758:	80 f9       	bld	r24, 0
	bool B = (PIND & (1<<PIND6));
	if(B==A)
    175a:	98 13       	cpse	r25, r24
    175c:	0a c0       	rjmp	.+20     	; 0x1772 <__vector_5+0x40>
		rotary ++;
    175e:	80 91 6f 01 	lds	r24, 0x016F
    1762:	90 91 70 01 	lds	r25, 0x0170
    1766:	01 96       	adiw	r24, 0x01	; 1
    1768:	90 93 70 01 	sts	0x0170, r25
    176c:	80 93 6f 01 	sts	0x016F, r24
    1770:	09 c0       	rjmp	.+18     	; 0x1784 <__vector_5+0x52>
	else
		rotary --;
    1772:	80 91 6f 01 	lds	r24, 0x016F
    1776:	90 91 70 01 	lds	r25, 0x0170
    177a:	01 97       	sbiw	r24, 0x01	; 1
    177c:	90 93 70 01 	sts	0x0170, r25
    1780:	80 93 6f 01 	sts	0x016F, r24
	if(light_status==ON){
    1784:	80 91 62 01 	lds	r24, 0x0162
    1788:	88 23       	and	r24, r24
    178a:	69 f0       	breq	.+26     	; 0x17a6 <__vector_5+0x74>
		light_sec_off = (seconds + LIGHT_ON_DURATION)%60;
    178c:	80 91 80 01 	lds	r24, 0x0180
    1790:	90 91 81 01 	lds	r25, 0x0181
    1794:	03 96       	adiw	r24, 0x03	; 3
    1796:	6c e3       	ldi	r22, 0x3C	; 60
    1798:	70 e0       	ldi	r23, 0x00	; 0
    179a:	0e 94 6f 22 	call	0x44de	; 0x44de <__divmodhi4>
    179e:	90 93 d1 01 	sts	0x01D1, r25
    17a2:	80 93 d0 01 	sts	0x01D0, r24
	}
	
}	
    17a6:	bf 91       	pop	r27
    17a8:	af 91       	pop	r26
    17aa:	9f 91       	pop	r25
    17ac:	8f 91       	pop	r24
    17ae:	7f 91       	pop	r23
    17b0:	6f 91       	pop	r22
    17b2:	5f 91       	pop	r21
    17b4:	0f 90       	pop	r0
    17b6:	0f be       	out	0x3f, r0	; 63
    17b8:	0f 90       	pop	r0
    17ba:	1f 90       	pop	r1
    17bc:	18 95       	reti

000017be <__vector_9>:

	
ISR(TIMER2_OVF_vect) {//Quarz-Overflow (1s vorbei)
    17be:	1f 92       	push	r1
    17c0:	0f 92       	push	r0
    17c2:	0f b6       	in	r0, 0x3f	; 63
    17c4:	0f 92       	push	r0
    17c6:	11 24       	eor	r1, r1
    17c8:	2f 93       	push	r18
    17ca:	3f 93       	push	r19
    17cc:	8f 93       	push	r24
    17ce:	9f 93       	push	r25
    17d0:	af 93       	push	r26
    17d2:	bf 93       	push	r27
	timeAdvance ++;//zhlt wie viele Sekunden seit letzter Korrektur vorbei sind
    17d4:	80 91 73 01 	lds	r24, 0x0173
    17d8:	90 91 74 01 	lds	r25, 0x0174
    17dc:	a0 91 75 01 	lds	r26, 0x0175
    17e0:	b0 91 76 01 	lds	r27, 0x0176
    17e4:	01 96       	adiw	r24, 0x01	; 1
    17e6:	a1 1d       	adc	r26, r1
    17e8:	b1 1d       	adc	r27, r1
    17ea:	80 93 73 01 	sts	0x0173, r24
    17ee:	90 93 74 01 	sts	0x0174, r25
    17f2:	a0 93 75 01 	sts	0x0175, r26
    17f6:	b0 93 76 01 	sts	0x0176, r27
	//if( (timeAdvance>0) && (timeAdvance<137932) ){
	//DAS HIER AN, FALLS timeAdvance = 1: 
	//if((timeAdvance != 137932) && increment ){ //nach 137932s ist Wecker 2s zu schnell FR MESSUNG AUSGESTELLT
		seconds ++;
    17fa:	80 91 80 01 	lds	r24, 0x0180
    17fe:	90 91 81 01 	lds	r25, 0x0181
    1802:	01 96       	adiw	r24, 0x01	; 1
    1804:	90 93 81 01 	sts	0x0181, r25
    1808:	80 93 80 01 	sts	0x0180, r24
		if( seconds == 60 ) {
    180c:	cc 97       	sbiw	r24, 0x3c	; 60
    180e:	69 f4       	brne	.+26     	; 0x182a <__vector_9+0x6c>
			timeUpdate++;
    1810:	80 91 77 01 	lds	r24, 0x0177
    1814:	90 91 78 01 	lds	r25, 0x0178
    1818:	01 96       	adiw	r24, 0x01	; 1
    181a:	90 93 78 01 	sts	0x0178, r25
    181e:	80 93 77 01 	sts	0x0177, r24
			seconds = 0;
    1822:	10 92 81 01 	sts	0x0181, r1
    1826:	10 92 80 01 	sts	0x0180, r1
		if(increment) //ist zum ersten mal hier drin -> timeAdvance == 137932
			increment = false;
		else //zum zweiten Mal -> darf wieder nicht inkrementieren, weil insgesamt 2s zu schnell (hier noch 1s)
			increment = true;	
	}*///FR MESSUNG AUSGTESTELLT	
	if( (light_status==ON) && (seconds == light_sec_off) ){
    182a:	80 91 62 01 	lds	r24, 0x0162
    182e:	88 23       	and	r24, r24
    1830:	81 f0       	breq	.+32     	; 0x1852 <__vector_9+0x94>
    1832:	20 91 80 01 	lds	r18, 0x0180
    1836:	30 91 81 01 	lds	r19, 0x0181
    183a:	80 91 d0 01 	lds	r24, 0x01D0
    183e:	90 91 d1 01 	lds	r25, 0x01D1
    1842:	28 17       	cp	r18, r24
    1844:	39 07       	cpc	r19, r25
    1846:	29 f4       	brne	.+10     	; 0x1852 <__vector_9+0x94>
		//Alle Beleuchtungen ausschalten
		LCD_LED = 0;
    1848:	45 98       	cbi	0x08, 5	; 8
		LED_NORWAY = 0;
    184a:	2b 98       	cbi	0x05, 3	; 5
		LED_AUSTRALIA = 0;
    184c:	2c 98       	cbi	0x05, 4	; 5
		light_status = OFF;
    184e:	10 92 62 01 	sts	0x0162, r1
	}
}
    1852:	bf 91       	pop	r27
    1854:	af 91       	pop	r26
    1856:	9f 91       	pop	r25
    1858:	8f 91       	pop	r24
    185a:	3f 91       	pop	r19
    185c:	2f 91       	pop	r18
    185e:	0f 90       	pop	r0
    1860:	0f be       	out	0x3f, r0	; 63
    1862:	0f 90       	pop	r0
    1864:	1f 90       	pop	r1
    1866:	18 95       	reti

00001868 <__vector_16>:
	
ISR(TIMER0_OVF_vect){//Timer zur Messung der Drckdauer eines Tasters
    1868:	1f 92       	push	r1
    186a:	0f 92       	push	r0
    186c:	0f b6       	in	r0, 0x3f	; 63
    186e:	0f 92       	push	r0
    1870:	11 24       	eor	r1, r1
    1872:	2f 93       	push	r18
    1874:	3f 93       	push	r19
    1876:	4f 93       	push	r20
    1878:	5f 93       	push	r21
    187a:	6f 93       	push	r22
    187c:	7f 93       	push	r23
    187e:	8f 93       	push	r24
    1880:	9f 93       	push	r25
    1882:	af 93       	push	r26
    1884:	bf 93       	push	r27
    1886:	ef 93       	push	r30
    1888:	ff 93       	push	r31
	//8Mhz / 256 = 31250 Hz
	//256 [ticks/Interrupt] / 31250 [ticks / s] = 8.192 [ms / Interrupt]
	btn_press_duration += 0.008192;	
    188a:	2d eb       	ldi	r18, 0xBD	; 189
    188c:	37 e3       	ldi	r19, 0x37	; 55
    188e:	46 e0       	ldi	r20, 0x06	; 6
    1890:	5c e3       	ldi	r21, 0x3C	; 60
    1892:	60 91 69 01 	lds	r22, 0x0169
    1896:	70 91 6a 01 	lds	r23, 0x016A
    189a:	80 91 6b 01 	lds	r24, 0x016B
    189e:	90 91 6c 01 	lds	r25, 0x016C
    18a2:	0e 94 84 21 	call	0x4308	; 0x4308 <__addsf3>
    18a6:	60 93 69 01 	sts	0x0169, r22
    18aa:	70 93 6a 01 	sts	0x016A, r23
    18ae:	80 93 6b 01 	sts	0x016B, r24
    18b2:	90 93 6c 01 	sts	0x016C, r25
}
    18b6:	ff 91       	pop	r31
    18b8:	ef 91       	pop	r30
    18ba:	bf 91       	pop	r27
    18bc:	af 91       	pop	r26
    18be:	9f 91       	pop	r25
    18c0:	8f 91       	pop	r24
    18c2:	7f 91       	pop	r23
    18c4:	6f 91       	pop	r22
    18c6:	5f 91       	pop	r21
    18c8:	4f 91       	pop	r20
    18ca:	3f 91       	pop	r19
    18cc:	2f 91       	pop	r18
    18ce:	0f 90       	pop	r0
    18d0:	0f be       	out	0x3f, r0	; 63
    18d2:	0f 90       	pop	r0
    18d4:	1f 90       	pop	r1
    18d6:	18 95       	reti

000018d8 <set_ports>:

void set_ports(){
	DDRB = 0xFF;//Ausgnge
    18d8:	8f ef       	ldi	r24, 0xFF	; 255
    18da:	84 b9       	out	0x04, r24	; 4
	DDRB &= ~(1<<PORTB1);//Taster Licht
    18dc:	21 98       	cbi	0x04, 1	; 4
	DDRB &= ~(1<<PORTB2);//Drehencoder D
    18de:	22 98       	cbi	0x04, 2	; 4
	DDRB &= ~(1<<PORTB6);//2 Oszillator Eingnge
    18e0:	26 98       	cbi	0x04, 6	; 4
	DDRB &= ~(1<<PORTB7);
    18e2:	27 98       	cbi	0x04, 7	; 4
	PORTB &= ~(1<<PORTB0);//Amp aus
    18e4:	28 98       	cbi	0x05, 0	; 5
	
	DDRC = 0xFF;//Ausgnge Display
    18e6:	87 b9       	out	0x07, r24	; 7
	
	DDRD = 0xFF;//Ausgnge
    18e8:	8a b9       	out	0x0a, r24	; 10
	//Taster am mp3-Player werden als Eingnge gesetzt. Nur bei Nutzug auf Ausgang
	DDRD &= ~(1<<PORTD0);//Mp3-OnOff/PlayPause
    18ea:	50 98       	cbi	0x0a, 0	; 10
	DDRD &= ~(1<<PORTD1);//4 Taster mp3-Player laut/leiser etc.
    18ec:	51 98       	cbi	0x0a, 1	; 10
	DDRD &= ~(1<<PORTD2);
    18ee:	52 98       	cbi	0x0a, 2	; 10
	DDRD &= ~(1<<PORTD3);
    18f0:	53 98       	cbi	0x0a, 3	; 10
	DDRD &= ~(1<<PORTD4);
    18f2:	54 98       	cbi	0x0a, 4	; 10
	DDRD &= ~(1<<PORTD5);//Drehenocer A
    18f4:	55 98       	cbi	0x0a, 5	; 10
	DDRD &= ~(1<<PORTD6);//Drehencoder B
    18f6:	56 98       	cbi	0x0a, 6	; 10
	PORTD &= ~(1<<PORTD7);//Amp Mute
    18f8:	5f 98       	cbi	0x0b, 7	; 11

	LCD_RST = 1;
    18fa:	43 9a       	sbi	0x08, 3	; 8
	LCD_CS = 1;
    18fc:	44 9a       	sbi	0x08, 4	; 8
	LCD_CLK = 1;
    18fe:	41 9a       	sbi	0x08, 1	; 8
    1900:	08 95       	ret

00001902 <configureTimerAndInterrupts>:
}

void configureTimerAndInterrupts() {
	//TIMER2 (Uhr)
	ASSR |= (1<<AS2); //Activate asynchronous clock for Timer2
    1902:	e6 eb       	ldi	r30, 0xB6	; 182
    1904:	f0 e0       	ldi	r31, 0x00	; 0
    1906:	80 81       	ld	r24, Z
    1908:	80 62       	ori	r24, 0x20	; 32
    190a:	80 83       	st	Z, r24
	TCNT2 = 0; //set Timer2 counter = 0
    190c:	10 92 b2 00 	sts	0x00B2, r1
	TCCR2B |= (1<<CS22)|(1<<CS20); //Prescaler 128
    1910:	e1 eb       	ldi	r30, 0xB1	; 177
    1912:	f0 e0       	ldi	r31, 0x00	; 0
    1914:	80 81       	ld	r24, Z
    1916:	85 60       	ori	r24, 0x05	; 5
    1918:	80 83       	st	Z, r24
	TIMSK2 |= (1<<TOIE2); //Overflow-interrupt
    191a:	e0 e7       	ldi	r30, 0x70	; 112
    191c:	f0 e0       	ldi	r31, 0x00	; 0
    191e:	80 81       	ld	r24, Z
    1920:	81 60       	ori	r24, 0x01	; 1
    1922:	80 83       	st	Z, r24
	
	//TIMER1 (Druckdauer von Tasten messen)
	TIMSK0 = (1<<TOIE0);//Overflow-Interrupt --> 8-bit, 255
    1924:	81 e0       	ldi	r24, 0x01	; 1
    1926:	80 93 6e 00 	sts	0x006E, r24
	
	//Licht-Taster und Drehencoder-Taster
	PCICR = (1<<PCIE0);//PCINT[7:0] enable
    192a:	e8 e6       	ldi	r30, 0x68	; 104
    192c:	f0 e0       	ldi	r31, 0x00	; 0
    192e:	80 83       	st	Z, r24
	PCMSK0 = (1<<PCINT1);//Drcken von Lichtschalter
    1930:	ab e6       	ldi	r26, 0x6B	; 107
    1932:	b0 e0       	ldi	r27, 0x00	; 0
    1934:	82 e0       	ldi	r24, 0x02	; 2
    1936:	8c 93       	st	X, r24
	PCMSK0 |=(1<<PCINT2);//Drcken von Drehencoder
    1938:	8c 91       	ld	r24, X
    193a:	84 60       	ori	r24, 0x04	; 4
    193c:	8c 93       	st	X, r24

	//Drehencoder drehen
	PCICR |= (1<<PCIE2);//PCINT[23:16]
    193e:	80 81       	ld	r24, Z
    1940:	84 60       	ori	r24, 0x04	; 4
    1942:	80 83       	st	Z, r24
	PCMSK2 = (1<<PCINT21);//Interrupt bei Pinnderung durch Drehung Drehencoder
    1944:	80 e2       	ldi	r24, 0x20	; 32
    1946:	80 93 6d 00 	sts	0x006D, r24
    194a:	08 95       	ret

0000194c <snooze_alarm>:
	mp3Player_onoff();
}

void snooze_alarm(){
	
	alarm_minute = minute + snoozeDuration % 60;
    194c:	80 91 08 01 	lds	r24, 0x0108
    1950:	90 91 09 01 	lds	r25, 0x0109
    1954:	6c e3       	ldi	r22, 0x3C	; 60
    1956:	70 e0       	ldi	r23, 0x00	; 0
    1958:	0e 94 6f 22 	call	0x44de	; 0x44de <__divmodhi4>
    195c:	20 91 82 01 	lds	r18, 0x0182
    1960:	30 91 83 01 	lds	r19, 0x0183
    1964:	82 0f       	add	r24, r18
    1966:	93 1f       	adc	r25, r19
    1968:	90 93 7d 01 	sts	0x017D, r25
    196c:	80 93 7c 01 	sts	0x017C, r24
	if(alarm_minute < 5)
    1970:	05 97       	sbiw	r24, 0x05	; 5
    1972:	54 f4       	brge	.+20     	; 0x1988 <snooze_alarm+0x3c>
		alarm_hour = hour + 1;
    1974:	80 91 0a 01 	lds	r24, 0x010A
    1978:	90 91 0b 01 	lds	r25, 0x010B
    197c:	01 96       	adiw	r24, 0x01	; 1
    197e:	90 93 7f 01 	sts	0x017F, r25
    1982:	80 93 7e 01 	sts	0x017E, r24
    1986:	08 95       	ret
	else
		alarm_hour = hour;
    1988:	80 91 0a 01 	lds	r24, 0x010A
    198c:	90 91 0b 01 	lds	r25, 0x010B
    1990:	90 93 7f 01 	sts	0x017F, r25
    1994:	80 93 7e 01 	sts	0x017E, r24
    1998:	08 95       	ret

0000199a <remove_menuSelection>:
	}
	
	old_selectedItem = item;
}

void remove_menuSelection(int item, int numItems){
    199a:	1f 93       	push	r17
    199c:	cf 93       	push	r28
    199e:	df 93       	push	r29
	if(item < numItems){
    19a0:	86 17       	cp	r24, r22
    19a2:	97 07       	cpc	r25, r23
    19a4:	6c f0       	brlt	.+26     	; 0x19c0 <remove_menuSelection+0x26>
    19a6:	dc e5       	ldi	r29, 0x5C	; 92
    19a8:	19 c0       	rjmp	.+50     	; 0x19dc <remove_menuSelection+0x42>
		for(int x = 0; x<19; x++){
			for(int y = 0; y<64; y++)
				reset_pixel(x,y);
    19aa:	6c 2f       	mov	r22, r28
    19ac:	8d 2f       	mov	r24, r29
    19ae:	0e 94 06 08 	call	0x100c	; 0x100c <reset_pixel>
    19b2:	cf 5f       	subi	r28, 0xFF	; 255
}

void remove_menuSelection(int item, int numItems){
	if(item < numItems){
		for(int x = 0; x<19; x++){
			for(int y = 0; y<64; y++)
    19b4:	c0 34       	cpi	r28, 0x40	; 64
    19b6:	c9 f7       	brne	.-14     	; 0x19aa <remove_menuSelection+0x10>
    19b8:	df 5f       	subi	r29, 0xFF	; 255
	old_selectedItem = item;
}

void remove_menuSelection(int item, int numItems){
	if(item < numItems){
		for(int x = 0; x<19; x++){
    19ba:	d3 31       	cpi	r29, 0x13	; 19
    19bc:	19 f4       	brne	.+6      	; 0x19c4 <remove_menuSelection+0x2a>
    19be:	10 c0       	rjmp	.+32     	; 0x19e0 <remove_menuSelection+0x46>
    19c0:	d0 e0       	ldi	r29, 0x00	; 0
	}
	
	old_selectedItem = item;
}

void remove_menuSelection(int item, int numItems){
    19c2:	10 e0       	ldi	r17, 0x00	; 0
    19c4:	c1 2f       	mov	r28, r17
    19c6:	f1 cf       	rjmp	.-30     	; 0x19aa <remove_menuSelection+0x10>
				reset_pixel(x,y);
		}
	} else {
		for(int x = 92; x<108; x++){
			for(int y = 48; y<64; y++)
				reset_pixel(x,y);
    19c8:	6c 2f       	mov	r22, r28
    19ca:	8d 2f       	mov	r24, r29
    19cc:	0e 94 06 08 	call	0x100c	; 0x100c <reset_pixel>
    19d0:	cf 5f       	subi	r28, 0xFF	; 255
			for(int y = 0; y<64; y++)
				reset_pixel(x,y);
		}
	} else {
		for(int x = 92; x<108; x++){
			for(int y = 48; y<64; y++)
    19d2:	c0 34       	cpi	r28, 0x40	; 64
    19d4:	c9 f7       	brne	.-14     	; 0x19c8 <remove_menuSelection+0x2e>
    19d6:	df 5f       	subi	r29, 0xFF	; 255
		for(int x = 0; x<19; x++){
			for(int y = 0; y<64; y++)
				reset_pixel(x,y);
		}
	} else {
		for(int x = 92; x<108; x++){
    19d8:	dc 36       	cpi	r29, 0x6C	; 108
    19da:	11 f0       	breq	.+4      	; 0x19e0 <remove_menuSelection+0x46>
    19dc:	c0 e3       	ldi	r28, 0x30	; 48
    19de:	f4 cf       	rjmp	.-24     	; 0x19c8 <remove_menuSelection+0x2e>
			for(int y = 48; y<64; y++)
				reset_pixel(x,y);
		}
	}
}
    19e0:	df 91       	pop	r29
    19e2:	cf 91       	pop	r28
    19e4:	1f 91       	pop	r17
    19e6:	08 95       	ret

000019e8 <print_menuSelection>:
int get_dateXPos() {
	return ((127 - get_dateWidth()) / 2 + 1);
}


void print_menuSelection(int item, int numItems){
    19e8:	0f 93       	push	r16
    19ea:	1f 93       	push	r17
    19ec:	cf 93       	push	r28
    19ee:	df 93       	push	r29
    19f0:	ec 01       	movw	r28, r24
    19f2:	8b 01       	movw	r16, r22
	remove_menuSelection(old_selectedItem, numItems);
    19f4:	80 91 67 01 	lds	r24, 0x0167
    19f8:	90 91 68 01 	lds	r25, 0x0168
    19fc:	0e 94 cd 0c 	call	0x199a	; 0x199a <remove_menuSelection>
	
	if(item<numItems){
    1a00:	c0 17       	cp	r28, r16
    1a02:	d1 07       	cpc	r29, r17
    1a04:	9c f4       	brge	.+38     	; 0x1a2c <print_menuSelection+0x44>
		print_symbol(16,16, herzSymb,2,2+item*15);
    1a06:	8f e0       	ldi	r24, 0x0F	; 15
    1a08:	8c 9f       	mul	r24, r28
    1a0a:	80 01       	movw	r16, r0
    1a0c:	8d 9f       	mul	r24, r29
    1a0e:	10 0d       	add	r17, r0
    1a10:	11 24       	eor	r1, r1
    1a12:	0e 5f       	subi	r16, 0xFE	; 254
    1a14:	1f 4f       	sbci	r17, 0xFF	; 255
    1a16:	22 e0       	ldi	r18, 0x02	; 2
    1a18:	30 e0       	ldi	r19, 0x00	; 0
    1a1a:	46 ea       	ldi	r20, 0xA6	; 166
    1a1c:	51 e0       	ldi	r21, 0x01	; 1
    1a1e:	60 e1       	ldi	r22, 0x10	; 16
    1a20:	70 e0       	ldi	r23, 0x00	; 0
    1a22:	80 e1       	ldi	r24, 0x10	; 16
    1a24:	90 e0       	ldi	r25, 0x00	; 0
    1a26:	0e 94 59 08 	call	0x10b2	; 0x10b2 <print_symbol>
    1a2a:	0c c0       	rjmp	.+24     	; 0x1a44 <print_menuSelection+0x5c>
	} else {
		print_symbol(16,16, herzSymb, 92, 2+3*15);
    1a2c:	0f e2       	ldi	r16, 0x2F	; 47
    1a2e:	10 e0       	ldi	r17, 0x00	; 0
    1a30:	2c e5       	ldi	r18, 0x5C	; 92
    1a32:	30 e0       	ldi	r19, 0x00	; 0
    1a34:	46 ea       	ldi	r20, 0xA6	; 166
    1a36:	51 e0       	ldi	r21, 0x01	; 1
    1a38:	60 e1       	ldi	r22, 0x10	; 16
    1a3a:	70 e0       	ldi	r23, 0x00	; 0
    1a3c:	80 e1       	ldi	r24, 0x10	; 16
    1a3e:	90 e0       	ldi	r25, 0x00	; 0
    1a40:	0e 94 59 08 	call	0x10b2	; 0x10b2 <print_symbol>
	}
	
	old_selectedItem = item;
    1a44:	d0 93 68 01 	sts	0x0168, r29
    1a48:	c0 93 67 01 	sts	0x0167, r28
}
    1a4c:	df 91       	pop	r29
    1a4e:	cf 91       	pop	r28
    1a50:	1f 91       	pop	r17
    1a52:	0f 91       	pop	r16
    1a54:	08 95       	ret

00001a56 <print_ASCIIString>:
				reset_pixel(x,y);
		}
	}
}

void print_ASCIIString(int xStart, int yPos, int* string, int size){
    1a56:	af 92       	push	r10
    1a58:	bf 92       	push	r11
    1a5a:	cf 92       	push	r12
    1a5c:	df 92       	push	r13
    1a5e:	ef 92       	push	r14
    1a60:	ff 92       	push	r15
    1a62:	0f 93       	push	r16
    1a64:	1f 93       	push	r17
    1a66:	cf 93       	push	r28
    1a68:	df 93       	push	r29
    1a6a:	7c 01       	movw	r14, r24
    1a6c:	5b 01       	movw	r10, r22
	int tempXPos = xStart;
	for(int i=0; i<size; i++){
    1a6e:	12 16       	cp	r1, r18
    1a70:	13 06       	cpc	r1, r19
    1a72:	34 f5       	brge	.+76     	; 0x1ac0 <print_ASCIIString+0x6a>
    1a74:	ea 01       	movw	r28, r20
    1a76:	22 0f       	add	r18, r18
    1a78:	33 1f       	adc	r19, r19
    1a7a:	6a 01       	movw	r12, r20
    1a7c:	c2 0e       	add	r12, r18
    1a7e:	d3 1e       	adc	r13, r19
		if(string[i] < 0 ){//Leerzeichen
    1a80:	48 81       	ld	r20, Y
    1a82:	59 81       	ldd	r21, Y+1	; 0x01
    1a84:	55 23       	and	r21, r21
    1a86:	24 f4       	brge	.+8      	; 0x1a90 <print_ASCIIString+0x3a>
			tempXPos += 3;
    1a88:	83 e0       	ldi	r24, 0x03	; 3
    1a8a:	e8 0e       	add	r14, r24
    1a8c:	f1 1c       	adc	r15, r1
    1a8e:	14 c0       	rjmp	.+40     	; 0x1ab8 <print_ASCIIString+0x62>
		} else {
			print_letter(alphaHeight, pgm_read_byte(&alphaWidth[string[i]]), string[i], tempXPos, yPos);
    1a90:	fa 01       	movw	r30, r20
    1a92:	e0 5a       	subi	r30, 0xA0	; 160
    1a94:	fe 4f       	sbci	r31, 0xFE	; 254
    1a96:	64 91       	lpm	r22, Z
    1a98:	70 e0       	ldi	r23, 0x00	; 0
    1a9a:	85 01       	movw	r16, r10
    1a9c:	97 01       	movw	r18, r14
    1a9e:	80 e1       	ldi	r24, 0x10	; 16
    1aa0:	90 e0       	ldi	r25, 0x00	; 0
    1aa2:	0e 94 ed 08 	call	0x11da	; 0x11da <print_letter>
			tempXPos+=pgm_read_byte(&alphaWidth[string[i]])+1;
    1aa6:	e8 81       	ld	r30, Y
    1aa8:	f9 81       	ldd	r31, Y+1	; 0x01
    1aaa:	e0 5a       	subi	r30, 0xA0	; 160
    1aac:	fe 4f       	sbci	r31, 0xFE	; 254
    1aae:	e4 91       	lpm	r30, Z
    1ab0:	f0 e0       	ldi	r31, 0x00	; 0
    1ab2:	31 96       	adiw	r30, 0x01	; 1
    1ab4:	ee 0e       	add	r14, r30
    1ab6:	ff 1e       	adc	r15, r31
    1ab8:	22 96       	adiw	r28, 0x02	; 2
	}
}

void print_ASCIIString(int xStart, int yPos, int* string, int size){
	int tempXPos = xStart;
	for(int i=0; i<size; i++){
    1aba:	cc 15       	cp	r28, r12
    1abc:	dd 05       	cpc	r29, r13
    1abe:	01 f7       	brne	.-64     	; 0x1a80 <print_ASCIIString+0x2a>
			print_letter(alphaHeight, pgm_read_byte(&alphaWidth[string[i]]), string[i], tempXPos, yPos);
			tempXPos+=pgm_read_byte(&alphaWidth[string[i]])+1;
		}
	}
	
}
    1ac0:	df 91       	pop	r29
    1ac2:	cf 91       	pop	r28
    1ac4:	1f 91       	pop	r17
    1ac6:	0f 91       	pop	r16
    1ac8:	ff 90       	pop	r15
    1aca:	ef 90       	pop	r14
    1acc:	df 90       	pop	r13
    1ace:	cf 90       	pop	r12
    1ad0:	bf 90       	pop	r11
    1ad2:	af 90       	pop	r10
    1ad4:	08 95       	ret

00001ad6 <clear_pixelMatrix>:
	
	

	

	void clear_pixelMatrix(){
    1ad6:	ec ed       	ldi	r30, 0xDC	; 220
    1ad8:	f1 e0       	ldi	r31, 0x01	; 1
    1ada:	2c ed       	ldi	r18, 0xDC	; 220
    1adc:	35 e0       	ldi	r19, 0x05	; 5
    1ade:	08 c0       	rjmp	.+16     	; 0x1af0 <clear_pixelMatrix+0x1a>
		for(int i = 0; i<128; i++){
			for(int j = 0; j<8; j++){
				pixelMatrix[i][j]=0;
    1ae0:	11 92       	st	Z+, r1

	

	void clear_pixelMatrix(){
		for(int i = 0; i<128; i++){
			for(int j = 0; j<8; j++){
    1ae2:	e8 17       	cp	r30, r24
    1ae4:	f9 07       	cpc	r31, r25
    1ae6:	e1 f7       	brne	.-8      	; 0x1ae0 <clear_pixelMatrix+0xa>
    1ae8:	fc 01       	movw	r30, r24
	

	

	void clear_pixelMatrix(){
		for(int i = 0; i<128; i++){
    1aea:	28 17       	cp	r18, r24
    1aec:	39 07       	cpc	r19, r25
    1aee:	19 f0       	breq	.+6      	; 0x1af6 <clear_pixelMatrix+0x20>
    1af0:	cf 01       	movw	r24, r30
    1af2:	08 96       	adiw	r24, 0x08	; 8
    1af4:	f5 cf       	rjmp	.-22     	; 0x1ae0 <clear_pixelMatrix+0xa>
    1af6:	08 95       	ret

00001af8 <start_btnPress>:
		}
		update_LCD();
	}
	
	void start_btnPress(){
			btn_press_duration = 0;
    1af8:	10 92 69 01 	sts	0x0169, r1
    1afc:	10 92 6a 01 	sts	0x016A, r1
    1b00:	10 92 6b 01 	sts	0x016B, r1
    1b04:	10 92 6c 01 	sts	0x016C, r1
			TCNT0 = 0;
    1b08:	16 bc       	out	0x26, r1	; 38
			TCCR0B = (1<<CS02);//Prescaler 256		
    1b0a:	84 e0       	ldi	r24, 0x04	; 4
    1b0c:	85 bd       	out	0x25, r24	; 37
    1b0e:	08 95       	ret

00001b10 <check_TimeUpdate>:
	}
	
	
	
	bool check_TimeUpdate() {
		cli();
    1b10:	f8 94       	cli
		if (timeUpdate > 0) {
    1b12:	80 91 77 01 	lds	r24, 0x0177
    1b16:	90 91 78 01 	lds	r25, 0x0178
    1b1a:	18 16       	cp	r1, r24
    1b1c:	19 06       	cpc	r1, r25
    1b1e:	1c f4       	brge	.+6      	; 0x1b26 <check_TimeUpdate+0x16>
			sei();
    1b20:	78 94       	sei
			return true;
    1b22:	81 e0       	ldi	r24, 0x01	; 1
    1b24:	08 95       	ret
		} else {
			sei();
    1b26:	78 94       	sei
			return false;
    1b28:	80 e0       	ldi	r24, 0x00	; 0
		}
		
	}
    1b2a:	08 95       	ret

00001b2c <reset_alarmLogo>:
	
	void reset_alarmLogo() {
    1b2c:	1f 93       	push	r17
    1b2e:	cf 93       	push	r28
    1b30:	df 93       	push	r29
    1b32:	d1 e0       	ldi	r29, 0x01	; 1
    1b34:	11 e0       	ldi	r17, 0x01	; 1
    1b36:	0a c0       	rjmp	.+20     	; 0x1b4c <reset_alarmLogo+0x20>
		for(int x = 1; x<10; x++){
			for(int y = 1; y<1+16; y++)
				reset_pixel(x,y);
    1b38:	6c 2f       	mov	r22, r28
    1b3a:	8d 2f       	mov	r24, r29
    1b3c:	0e 94 06 08 	call	0x100c	; 0x100c <reset_pixel>
    1b40:	cf 5f       	subi	r28, 0xFF	; 255
		
	}
	
	void reset_alarmLogo() {
		for(int x = 1; x<10; x++){
			for(int y = 1; y<1+16; y++)
    1b42:	c1 31       	cpi	r28, 0x11	; 17
    1b44:	c9 f7       	brne	.-14     	; 0x1b38 <reset_alarmLogo+0xc>
    1b46:	df 5f       	subi	r29, 0xFF	; 255
		}
		
	}
	
	void reset_alarmLogo() {
		for(int x = 1; x<10; x++){
    1b48:	da 30       	cpi	r29, 0x0A	; 10
    1b4a:	11 f0       	breq	.+4      	; 0x1b50 <reset_alarmLogo+0x24>
			return false;
		}
		
	}
	
	void reset_alarmLogo() {
    1b4c:	c1 2f       	mov	r28, r17
    1b4e:	f4 cf       	rjmp	.-24     	; 0x1b38 <reset_alarmLogo+0xc>
		for(int x = 1; x<10; x++){
			for(int y = 1; y<1+16; y++)
				reset_pixel(x,y);
		}
	}
    1b50:	df 91       	pop	r29
    1b52:	cf 91       	pop	r28
    1b54:	1f 91       	pop	r17
    1b56:	08 95       	ret

00001b58 <print_alarmLogo>:
	
	void print_alarmLogo() {
    1b58:	0f 93       	push	r16
    1b5a:	1f 93       	push	r17
    1b5c:	cf 93       	push	r28
    1b5e:	df 93       	push	r29
    1b60:	cd b7       	in	r28, 0x3d	; 61
    1b62:	de b7       	in	r29, 0x3e	; 62
    1b64:	c8 54       	subi	r28, 0x48	; 72
    1b66:	d1 09       	sbc	r29, r1
    1b68:	0f b6       	in	r0, 0x3f	; 63
    1b6a:	f8 94       	cli
    1b6c:	de bf       	out	0x3e, r29	; 62
    1b6e:	0f be       	out	0x3f, r0	; 63
    1b70:	cd bf       	out	0x3d, r28	; 61
    1b72:	ed e9       	ldi	r30, 0x9D	; 157
    1b74:	fe e0       	ldi	r31, 0x0E	; 14
    1b76:	de 01       	movw	r26, r28
    1b78:	11 96       	adiw	r26, 0x01	; 1
    1b7a:	9e 01       	movw	r18, r28
    1b7c:	27 5b       	subi	r18, 0xB7	; 183
    1b7e:	3f 4f       	sbci	r19, 0xFF	; 255
		uint8_t weckerSymb[72];
		for(int i=0; i<72; i++){
			weckerSymb[i] = pgm_read_byte(&note[0][i]);
    1b80:	84 91       	lpm	r24, Z
    1b82:	8d 93       	st	X+, r24
    1b84:	31 96       	adiw	r30, 0x01	; 1
		}
	}
	
	void print_alarmLogo() {
		uint8_t weckerSymb[72];
		for(int i=0; i<72; i++){
    1b86:	a2 17       	cp	r26, r18
    1b88:	b3 07       	cpc	r27, r19
    1b8a:	d1 f7       	brne	.-12     	; 0x1b80 <print_alarmLogo+0x28>
			weckerSymb[i] = pgm_read_byte(&note[0][i]);
		}
		print_symbol(16,9,weckerSymb,1/*116*/,1);
    1b8c:	01 e0       	ldi	r16, 0x01	; 1
    1b8e:	10 e0       	ldi	r17, 0x00	; 0
    1b90:	21 e0       	ldi	r18, 0x01	; 1
    1b92:	30 e0       	ldi	r19, 0x00	; 0
    1b94:	ae 01       	movw	r20, r28
    1b96:	4f 5f       	subi	r20, 0xFF	; 255
    1b98:	5f 4f       	sbci	r21, 0xFF	; 255
    1b9a:	69 e0       	ldi	r22, 0x09	; 9
    1b9c:	70 e0       	ldi	r23, 0x00	; 0
    1b9e:	80 e1       	ldi	r24, 0x10	; 16
    1ba0:	90 e0       	ldi	r25, 0x00	; 0
    1ba2:	0e 94 59 08 	call	0x10b2	; 0x10b2 <print_symbol>
	}
    1ba6:	c8 5b       	subi	r28, 0xB8	; 184
    1ba8:	df 4f       	sbci	r29, 0xFF	; 255
    1baa:	0f b6       	in	r0, 0x3f	; 63
    1bac:	f8 94       	cli
    1bae:	de bf       	out	0x3e, r29	; 62
    1bb0:	0f be       	out	0x3f, r0	; 63
    1bb2:	cd bf       	out	0x3d, r28	; 61
    1bb4:	df 91       	pop	r29
    1bb6:	cf 91       	pop	r28
    1bb8:	1f 91       	pop	r17
    1bba:	0f 91       	pop	r16
    1bbc:	08 95       	ret

00001bbe <reset_snoozeLogo>:
	
	void reset_snoozeLogo(){
    1bbe:	1f 93       	push	r17
    1bc0:	cf 93       	push	r28
    1bc2:	df 93       	push	r29
    1bc4:	d1 e0       	ldi	r29, 0x01	; 1
    1bc6:	11 e0       	ldi	r17, 0x01	; 1
    1bc8:	0a c0       	rjmp	.+20     	; 0x1bde <reset_snoozeLogo+0x20>
		for(int x = 1; x<SNOOZE_WIDTH; x++){
			for(int y = 1; y<1+11; y++)
			reset_pixel(x,y);
    1bca:	6c 2f       	mov	r22, r28
    1bcc:	8d 2f       	mov	r24, r29
    1bce:	0e 94 06 08 	call	0x100c	; 0x100c <reset_pixel>
    1bd2:	cf 5f       	subi	r28, 0xFF	; 255
		print_symbol(16,9,weckerSymb,1/*116*/,1);
	}
	
	void reset_snoozeLogo(){
		for(int x = 1; x<SNOOZE_WIDTH; x++){
			for(int y = 1; y<1+11; y++)
    1bd4:	cc 30       	cpi	r28, 0x0C	; 12
    1bd6:	c9 f7       	brne	.-14     	; 0x1bca <reset_snoozeLogo+0xc>
    1bd8:	df 5f       	subi	r29, 0xFF	; 255
		}
		print_symbol(16,9,weckerSymb,1/*116*/,1);
	}
	
	void reset_snoozeLogo(){
		for(int x = 1; x<SNOOZE_WIDTH; x++){
    1bda:	de 30       	cpi	r29, 0x0E	; 14
    1bdc:	11 f0       	breq	.+4      	; 0x1be2 <reset_snoozeLogo+0x24>
			weckerSymb[i] = pgm_read_byte(&note[0][i]);
		}
		print_symbol(16,9,weckerSymb,1/*116*/,1);
	}
	
	void reset_snoozeLogo(){
    1bde:	c1 2f       	mov	r28, r17
    1be0:	f4 cf       	rjmp	.-24     	; 0x1bca <reset_snoozeLogo+0xc>
		for(int x = 1; x<SNOOZE_WIDTH; x++){
			for(int y = 1; y<1+11; y++)
			reset_pixel(x,y);
		}
	}
    1be2:	df 91       	pop	r29
    1be4:	cf 91       	pop	r28
    1be6:	1f 91       	pop	r17
    1be8:	08 95       	ret

00001bea <print_snoozeLogo>:
	
	void print_snoozeLogo(){
    1bea:	0f 93       	push	r16
    1bec:	1f 93       	push	r17
    1bee:	cf 93       	push	r28
    1bf0:	df 93       	push	r29
    1bf2:	cd b7       	in	r28, 0x3d	; 61
    1bf4:	de b7       	in	r29, 0x3e	; 62
    1bf6:	2e 97       	sbiw	r28, 0x0e	; 14
    1bf8:	0f b6       	in	r0, 0x3f	; 63
    1bfa:	f8 94       	cli
    1bfc:	de bf       	out	0x3e, r29	; 62
    1bfe:	0f be       	out	0x3f, r0	; 63
    1c00:	cd bf       	out	0x3d, r28	; 61
    1c02:	e4 e7       	ldi	r30, 0x74	; 116
    1c04:	fd e0       	ldi	r31, 0x0D	; 13
    1c06:	de 01       	movw	r26, r28
    1c08:	11 96       	adiw	r26, 0x01	; 1
    1c0a:	9e 01       	movw	r18, r28
    1c0c:	21 5f       	subi	r18, 0xF1	; 241
    1c0e:	3f 4f       	sbci	r19, 0xFF	; 255
		uint8_t snoozeSymb[SNOOZE_WIDTH];
		for(int i=0; i<SNOOZE_WIDTH; i++){//PRFEN hakenSymb i<60
			snoozeSymb[i] = pgm_read_byte(&snooze[0][i]);
    1c10:	84 91       	lpm	r24, Z
    1c12:	8d 93       	st	X+, r24
    1c14:	31 96       	adiw	r30, 0x01	; 1
		}
	}
	
	void print_snoozeLogo(){
		uint8_t snoozeSymb[SNOOZE_WIDTH];
		for(int i=0; i<SNOOZE_WIDTH; i++){//PRFEN hakenSymb i<60
    1c16:	a2 17       	cp	r26, r18
    1c18:	b3 07       	cpc	r27, r19
    1c1a:	d1 f7       	brne	.-12     	; 0x1c10 <print_snoozeLogo+0x26>
			snoozeSymb[i] = pgm_read_byte(&snooze[0][i]);
		}
		print_symbol(11,14, snoozeSymb,1,1);
    1c1c:	01 e0       	ldi	r16, 0x01	; 1
    1c1e:	10 e0       	ldi	r17, 0x00	; 0
    1c20:	21 e0       	ldi	r18, 0x01	; 1
    1c22:	30 e0       	ldi	r19, 0x00	; 0
    1c24:	ae 01       	movw	r20, r28
    1c26:	4f 5f       	subi	r20, 0xFF	; 255
    1c28:	5f 4f       	sbci	r21, 0xFF	; 255
    1c2a:	6e e0       	ldi	r22, 0x0E	; 14
    1c2c:	70 e0       	ldi	r23, 0x00	; 0
    1c2e:	8b e0       	ldi	r24, 0x0B	; 11
    1c30:	90 e0       	ldi	r25, 0x00	; 0
    1c32:	0e 94 59 08 	call	0x10b2	; 0x10b2 <print_symbol>
	}
    1c36:	2e 96       	adiw	r28, 0x0e	; 14
    1c38:	0f b6       	in	r0, 0x3f	; 63
    1c3a:	f8 94       	cli
    1c3c:	de bf       	out	0x3e, r29	; 62
    1c3e:	0f be       	out	0x3f, r0	; 63
    1c40:	cd bf       	out	0x3d, r28	; 61
    1c42:	df 91       	pop	r29
    1c44:	cf 91       	pop	r28
    1c46:	1f 91       	pop	r17
    1c48:	0f 91       	pop	r16
    1c4a:	08 95       	ret

00001c4c <print_timeDot>:
		int tempXPos = print_hour(h);
		tempXPos = print_timeDot(tempXPos, timeYPos);
		print_minute(m, tempXPos + SPACE_TO_DOTS);
	}
	
	int print_timeDot(int xStart, int yStart) {
    1c4c:	6f 92       	push	r6
    1c4e:	7f 92       	push	r7
    1c50:	8f 92       	push	r8
    1c52:	9f 92       	push	r9
    1c54:	af 92       	push	r10
    1c56:	bf 92       	push	r11
    1c58:	cf 92       	push	r12
    1c5a:	df 92       	push	r13
    1c5c:	ef 92       	push	r14
    1c5e:	ff 92       	push	r15
    1c60:	0f 93       	push	r16
    1c62:	1f 93       	push	r17
    1c64:	cf 93       	push	r28
    1c66:	df 93       	push	r29
    1c68:	6c 01       	movw	r12, r24
    1c6a:	a8 2e       	mov	r10, r24
		for(int x=0; x<5; x++){
			for(int y=0; y<32; y++){
				if((pgm_read_byte(&timeDot[x*32/8+y/8])) & (1<<(y%8))){
    1c6c:	e1 2c       	mov	r14, r1
    1c6e:	f1 2c       	mov	r15, r1
    1c70:	66 2e       	mov	r6, r22
    1c72:	68 94       	set
    1c74:	99 24       	eor	r9, r9
    1c76:	95 f8       	bld	r9, 5
    1c78:	96 0e       	add	r9, r22
    1c7a:	71 2c       	mov	r7, r1
    1c7c:	81 2c       	mov	r8, r1
    1c7e:	35 c0       	rjmp	.+106    	; 0x1cea <print_timeDot+0x9e>
    1c80:	fe 01       	movw	r30, r28
    1c82:	dd 23       	and	r29, r29
    1c84:	0c f4       	brge	.+2      	; 0x1c88 <print_timeDot+0x3c>
    1c86:	37 96       	adiw	r30, 0x07	; 7
    1c88:	f5 95       	asr	r31
    1c8a:	e7 95       	ror	r30
    1c8c:	f5 95       	asr	r31
    1c8e:	e7 95       	ror	r30
    1c90:	f5 95       	asr	r31
    1c92:	e7 95       	ror	r30
    1c94:	e0 0f       	add	r30, r16
    1c96:	f1 1f       	adc	r31, r17
    1c98:	e8 59       	subi	r30, 0x98	; 152
    1c9a:	ff 4f       	sbci	r31, 0xFF	; 255
    1c9c:	e4 91       	lpm	r30, Z
    1c9e:	f0 e0       	ldi	r31, 0x00	; 0
    1ca0:	ce 01       	movw	r24, r28
    1ca2:	87 70       	andi	r24, 0x07	; 7
    1ca4:	90 78       	andi	r25, 0x80	; 128
    1ca6:	99 23       	and	r25, r25
    1ca8:	24 f4       	brge	.+8      	; 0x1cb2 <print_timeDot+0x66>
    1caa:	01 97       	sbiw	r24, 0x01	; 1
    1cac:	88 6f       	ori	r24, 0xF8	; 248
    1cae:	9f 6f       	ori	r25, 0xFF	; 255
    1cb0:	01 96       	adiw	r24, 0x01	; 1
    1cb2:	02 c0       	rjmp	.+4      	; 0x1cb8 <print_timeDot+0x6c>
    1cb4:	f5 95       	asr	r31
    1cb6:	e7 95       	ror	r30
    1cb8:	8a 95       	dec	r24
    1cba:	e2 f7       	brpl	.-8      	; 0x1cb4 <print_timeDot+0x68>
    1cbc:	e0 ff       	sbrs	r30, 0
    1cbe:	05 c0       	rjmp	.+10     	; 0x1cca <print_timeDot+0x7e>
					set_pixel(xStart+x,yStart+y);
    1cc0:	6b 2d       	mov	r22, r11
    1cc2:	8a 2d       	mov	r24, r10
    1cc4:	0e 94 e3 07 	call	0xfc6	; 0xfc6 <set_pixel>
    1cc8:	04 c0       	rjmp	.+8      	; 0x1cd2 <print_timeDot+0x86>
					} else {
					reset_pixel(xStart+x,yStart+y);
    1cca:	6b 2d       	mov	r22, r11
    1ccc:	8a 2d       	mov	r24, r10
    1cce:	0e 94 06 08 	call	0x100c	; 0x100c <reset_pixel>
		print_minute(m, tempXPos + SPACE_TO_DOTS);
	}
	
	int print_timeDot(int xStart, int yStart) {
		for(int x=0; x<5; x++){
			for(int y=0; y<32; y++){
    1cd2:	21 96       	adiw	r28, 0x01	; 1
    1cd4:	b3 94       	inc	r11
    1cd6:	b9 10       	cpse	r11, r9
    1cd8:	d3 cf       	rjmp	.-90     	; 0x1c80 <print_timeDot+0x34>
    1cda:	80 e2       	ldi	r24, 0x20	; 32
    1cdc:	e8 0e       	add	r14, r24
    1cde:	f1 1c       	adc	r15, r1
    1ce0:	a3 94       	inc	r10
		tempXPos = print_timeDot(tempXPos, timeYPos);
		print_minute(m, tempXPos + SPACE_TO_DOTS);
	}
	
	int print_timeDot(int xStart, int yStart) {
		for(int x=0; x<5; x++){
    1ce2:	80 ea       	ldi	r24, 0xA0	; 160
    1ce4:	e8 16       	cp	r14, r24
    1ce6:	f1 04       	cpc	r15, r1
    1ce8:	79 f0       	breq	.+30     	; 0x1d08 <print_timeDot+0xbc>
			for(int y=0; y<32; y++){
				if((pgm_read_byte(&timeDot[x*32/8+y/8])) & (1<<(y%8))){
    1cea:	87 01       	movw	r16, r14
    1cec:	ff 20       	and	r15, r15
    1cee:	14 f4       	brge	.+4      	; 0x1cf4 <print_timeDot+0xa8>
    1cf0:	09 5f       	subi	r16, 0xF9	; 249
    1cf2:	1f 4f       	sbci	r17, 0xFF	; 255
    1cf4:	15 95       	asr	r17
    1cf6:	07 95       	ror	r16
    1cf8:	15 95       	asr	r17
    1cfa:	07 95       	ror	r16
    1cfc:	15 95       	asr	r17
    1cfe:	07 95       	ror	r16
    1d00:	b6 2c       	mov	r11, r6
    1d02:	c7 2d       	mov	r28, r7
    1d04:	d8 2d       	mov	r29, r8
    1d06:	bc cf       	rjmp	.-136    	; 0x1c80 <print_timeDot+0x34>
					reset_pixel(xStart+x,yStart+y);
				}
			}
		}
		return xStart + 5;
	}
    1d08:	c6 01       	movw	r24, r12
    1d0a:	05 96       	adiw	r24, 0x05	; 5
    1d0c:	df 91       	pop	r29
    1d0e:	cf 91       	pop	r28
    1d10:	1f 91       	pop	r17
    1d12:	0f 91       	pop	r16
    1d14:	ff 90       	pop	r15
    1d16:	ef 90       	pop	r14
    1d18:	df 90       	pop	r13
    1d1a:	cf 90       	pop	r12
    1d1c:	bf 90       	pop	r11
    1d1e:	af 90       	pop	r10
    1d20:	9f 90       	pop	r9
    1d22:	8f 90       	pop	r8
    1d24:	7f 90       	pop	r7
    1d26:	6f 90       	pop	r6
    1d28:	08 95       	ret

00001d2a <get_timeWidth>:
		width = hourWidth  + SPACE_TO_DOTS + TIMEDOT_WIDTH + SPACE_TO_DOTS + minuteWidth;
		timeXPos = (127-width)/2;
	}
	
	int get_timeWidth(int t){
		int timeWidth = pgm_read_byte(&bigNumberWidth[t%10]) + INTER_DIGIT_SPACE; //first digit
    1d2a:	6a e0       	ldi	r22, 0x0A	; 10
    1d2c:	70 e0       	ldi	r23, 0x00	; 0
    1d2e:	0e 94 6f 22 	call	0x44de	; 0x44de <__divmodhi4>
    1d32:	fc 01       	movw	r30, r24
    1d34:	e8 56       	subi	r30, 0x68	; 104
    1d36:	fe 4f       	sbci	r31, 0xFE	; 254
    1d38:	84 91       	lpm	r24, Z
    1d3a:	90 e0       	ldi	r25, 0x00	; 0
    1d3c:	02 96       	adiw	r24, 0x02	; 2
		timeWidth += pgm_read_byte(&bigNumberWidth[t/10]); //second digit
    1d3e:	fb 01       	movw	r30, r22
    1d40:	e8 56       	subi	r30, 0x68	; 104
    1d42:	fe 4f       	sbci	r31, 0xFE	; 254
    1d44:	64 91       	lpm	r22, Z
		return timeWidth;
	}
    1d46:	86 0f       	add	r24, r22
    1d48:	91 1d       	adc	r25, r1
    1d4a:	08 95       	ret

00001d4c <update_timeXPos>:
			}
		}
		return xStart + 5;
	}
	
	void update_timeXPos(int h, int m) {
    1d4c:	cf 93       	push	r28
    1d4e:	df 93       	push	r29
    1d50:	eb 01       	movw	r28, r22
		uint8_t width = 0;
		hourWidth = get_timeWidth(h);
    1d52:	0e 94 95 0e 	call	0x1d2a	; 0x1d2a <get_timeWidth>
    1d56:	90 93 66 01 	sts	0x0166, r25
    1d5a:	80 93 65 01 	sts	0x0165, r24
		minuteWidth = get_timeWidth(m);
    1d5e:	ce 01       	movw	r24, r28
    1d60:	0e 94 95 0e 	call	0x1d2a	; 0x1d2a <get_timeWidth>
    1d64:	80 93 63 01 	sts	0x0163, r24
    1d68:	90 93 64 01 	sts	0x0164, r25
    1d6c:	90 91 65 01 	lds	r25, 0x0165
    1d70:	93 5f       	subi	r25, 0xF3	; 243
		width = hourWidth  + SPACE_TO_DOTS + TIMEDOT_WIDTH + SPACE_TO_DOTS + minuteWidth;
    1d72:	89 0f       	add	r24, r25
		timeXPos = (127-width)/2;
    1d74:	2f e7       	ldi	r18, 0x7F	; 127
    1d76:	30 e0       	ldi	r19, 0x00	; 0
    1d78:	28 1b       	sub	r18, r24
    1d7a:	31 09       	sbc	r19, r1
    1d7c:	c9 01       	movw	r24, r18
    1d7e:	99 23       	and	r25, r25
    1d80:	0c f4       	brge	.+2      	; 0x1d84 <update_timeXPos+0x38>
    1d82:	01 96       	adiw	r24, 0x01	; 1
    1d84:	95 95       	asr	r25
    1d86:	87 95       	ror	r24
    1d88:	90 93 7a 01 	sts	0x017A, r25
    1d8c:	80 93 79 01 	sts	0x0179, r24
	}
    1d90:	df 91       	pop	r29
    1d92:	cf 91       	pop	r28
    1d94:	08 95       	ret

00001d96 <print_hour>:
		int timeWidth = pgm_read_byte(&bigNumberWidth[t%10]) + INTER_DIGIT_SPACE; //first digit
		timeWidth += pgm_read_byte(&bigNumberWidth[t/10]); //second digit
		return timeWidth;
	}
	
	int print_hour(int h) {
    1d96:	ef 92       	push	r14
    1d98:	ff 92       	push	r15
    1d9a:	0f 93       	push	r16
    1d9c:	1f 93       	push	r17
    1d9e:	cf 93       	push	r28
    1da0:	df 93       	push	r29
		
		int tempX = timeXPos;//timeXPos-(pgm_read_byte(&bigNumberWidth[hour%10])+SPACE_TO_DOTS);
    1da2:	00 91 79 01 	lds	r16, 0x0179
    1da6:	10 91 7a 01 	lds	r17, 0x017A
		print_bigNumber(tempX,timeYPos,h/10);
    1daa:	6a e0       	ldi	r22, 0x0A	; 10
    1dac:	70 e0       	ldi	r23, 0x00	; 0
    1dae:	0e 94 6f 22 	call	0x44de	; 0x44de <__divmodhi4>
    1db2:	eb 01       	movw	r28, r22
    1db4:	7c 01       	movw	r14, r24
    1db6:	ab 01       	movw	r20, r22
    1db8:	69 e0       	ldi	r22, 0x09	; 9
    1dba:	70 e0       	ldi	r23, 0x00	; 0
    1dbc:	c8 01       	movw	r24, r16
    1dbe:	0e 94 ef 09 	call	0x13de	; 0x13de <print_bigNumber>
		tempX += pgm_read_byte(&bigNumberWidth[h/10])+INTER_DIGIT_SPACE;
    1dc2:	fe 01       	movw	r30, r28
    1dc4:	e8 56       	subi	r30, 0x68	; 104
    1dc6:	fe 4f       	sbci	r31, 0xFE	; 254
    1dc8:	c4 91       	lpm	r28, Z
    1dca:	d0 e0       	ldi	r29, 0x00	; 0
    1dcc:	22 96       	adiw	r28, 0x02	; 2
    1dce:	c0 0f       	add	r28, r16
    1dd0:	d1 1f       	adc	r29, r17
		print_bigNumber(tempX,timeYPos,h%10);
    1dd2:	a7 01       	movw	r20, r14
    1dd4:	69 e0       	ldi	r22, 0x09	; 9
    1dd6:	70 e0       	ldi	r23, 0x00	; 0
    1dd8:	ce 01       	movw	r24, r28
    1dda:	0e 94 ef 09 	call	0x13de	; 0x13de <print_bigNumber>
		return (tempX+pgm_read_byte(&bigNumberWidth[h%10]) + SPACE_TO_DOTS);
    1dde:	f7 01       	movw	r30, r14
    1de0:	e8 56       	subi	r30, 0x68	; 104
    1de2:	fe 4f       	sbci	r31, 0xFE	; 254
    1de4:	e4 91       	lpm	r30, Z
    1de6:	ce 01       	movw	r24, r28
    1de8:	8e 0f       	add	r24, r30
    1dea:	91 1d       	adc	r25, r1
	}
    1dec:	04 96       	adiw	r24, 0x04	; 4
    1dee:	df 91       	pop	r29
    1df0:	cf 91       	pop	r28
    1df2:	1f 91       	pop	r17
    1df4:	0f 91       	pop	r16
    1df6:	ff 90       	pop	r15
    1df8:	ef 90       	pop	r14
    1dfa:	08 95       	ret

00001dfc <print_minute>:
	
	void print_minute(int min, int tempX) {
    1dfc:	ef 92       	push	r14
    1dfe:	ff 92       	push	r15
    1e00:	0f 93       	push	r16
    1e02:	1f 93       	push	r17
    1e04:	cf 93       	push	r28
    1e06:	df 93       	push	r29
    1e08:	7c 01       	movw	r14, r24
    1e0a:	8b 01       	movw	r16, r22
		if(min<10) { //Null als erste Minutenzahl
    1e0c:	8a e0       	ldi	r24, 0x0A	; 10
    1e0e:	e8 16       	cp	r14, r24
    1e10:	f1 04       	cpc	r15, r1
    1e12:	7c f4       	brge	.+30     	; 0x1e32 <print_minute+0x36>
			print_bigNumber(tempX,timeYPos,0);
    1e14:	40 e0       	ldi	r20, 0x00	; 0
    1e16:	50 e0       	ldi	r21, 0x00	; 0
    1e18:	69 e0       	ldi	r22, 0x09	; 9
    1e1a:	70 e0       	ldi	r23, 0x00	; 0
    1e1c:	c8 01       	movw	r24, r16
    1e1e:	0e 94 ef 09 	call	0x13de	; 0x13de <print_bigNumber>
			tempX += pgm_read_byte(&bigNumberWidth[0])+INTER_DIGIT_SPACE;
    1e22:	e8 e9       	ldi	r30, 0x98	; 152
    1e24:	f1 e0       	ldi	r31, 0x01	; 1
    1e26:	e4 91       	lpm	r30, Z
    1e28:	f0 e0       	ldi	r31, 0x00	; 0
    1e2a:	32 96       	adiw	r30, 0x02	; 2
    1e2c:	0e 0f       	add	r16, r30
    1e2e:	1f 1f       	adc	r17, r31
    1e30:	14 c0       	rjmp	.+40     	; 0x1e5a <print_minute+0x5e>
		} else {
			print_bigNumber(tempX,timeYPos,min/10);
    1e32:	c7 01       	movw	r24, r14
    1e34:	6a e0       	ldi	r22, 0x0A	; 10
    1e36:	70 e0       	ldi	r23, 0x00	; 0
    1e38:	0e 94 6f 22 	call	0x44de	; 0x44de <__divmodhi4>
    1e3c:	eb 01       	movw	r28, r22
    1e3e:	ab 01       	movw	r20, r22
    1e40:	69 e0       	ldi	r22, 0x09	; 9
    1e42:	70 e0       	ldi	r23, 0x00	; 0
    1e44:	c8 01       	movw	r24, r16
    1e46:	0e 94 ef 09 	call	0x13de	; 0x13de <print_bigNumber>
			tempX += pgm_read_byte(&bigNumberWidth[min/10])+INTER_DIGIT_SPACE;
    1e4a:	fe 01       	movw	r30, r28
    1e4c:	e8 56       	subi	r30, 0x68	; 104
    1e4e:	fe 4f       	sbci	r31, 0xFE	; 254
    1e50:	e4 91       	lpm	r30, Z
    1e52:	f0 e0       	ldi	r31, 0x00	; 0
    1e54:	32 96       	adiw	r30, 0x02	; 2
    1e56:	0e 0f       	add	r16, r30
    1e58:	1f 1f       	adc	r17, r31
		}
		print_bigNumber(tempX,timeYPos,min%10);
    1e5a:	c7 01       	movw	r24, r14
    1e5c:	6a e0       	ldi	r22, 0x0A	; 10
    1e5e:	70 e0       	ldi	r23, 0x00	; 0
    1e60:	0e 94 6f 22 	call	0x44de	; 0x44de <__divmodhi4>
    1e64:	ac 01       	movw	r20, r24
    1e66:	69 e0       	ldi	r22, 0x09	; 9
    1e68:	70 e0       	ldi	r23, 0x00	; 0
    1e6a:	c8 01       	movw	r24, r16
    1e6c:	0e 94 ef 09 	call	0x13de	; 0x13de <print_bigNumber>

	}
    1e70:	df 91       	pop	r29
    1e72:	cf 91       	pop	r28
    1e74:	1f 91       	pop	r17
    1e76:	0f 91       	pop	r16
    1e78:	ff 90       	pop	r15
    1e7a:	ef 90       	pop	r14
    1e7c:	08 95       	ret

00001e7e <print_time>:
			year ++;
		}
		print_date(POS_DATE_STD);
	}
	
	void print_time(bool type) {
    1e7e:	0f 93       	push	r16
    1e80:	1f 93       	push	r17
    1e82:	cf 93       	push	r28
    1e84:	df 93       	push	r29
		int h = hour;
    1e86:	00 91 0a 01 	lds	r16, 0x010A
    1e8a:	10 91 0b 01 	lds	r17, 0x010B
		int m = minute;
    1e8e:	c0 91 82 01 	lds	r28, 0x0182
    1e92:	d0 91 83 01 	lds	r29, 0x0183
		if(type == ALARM_TYPE){
    1e96:	88 23       	and	r24, r24
    1e98:	41 f0       	breq	.+16     	; 0x1eaa <print_time+0x2c>
			h = alarm_hour;
    1e9a:	00 91 7e 01 	lds	r16, 0x017E
    1e9e:	10 91 7f 01 	lds	r17, 0x017F
			m = alarm_minute;
    1ea2:	c0 91 7c 01 	lds	r28, 0x017C
    1ea6:	d0 91 7d 01 	lds	r29, 0x017D
		}
		update_timeXPos(h, m);
    1eaa:	be 01       	movw	r22, r28
    1eac:	c8 01       	movw	r24, r16
    1eae:	0e 94 a6 0e 	call	0x1d4c	; 0x1d4c <update_timeXPos>
		int tempXPos = print_hour(h);
    1eb2:	c8 01       	movw	r24, r16
    1eb4:	0e 94 cb 0e 	call	0x1d96	; 0x1d96 <print_hour>
		tempXPos = print_timeDot(tempXPos, timeYPos);
    1eb8:	69 e0       	ldi	r22, 0x09	; 9
    1eba:	70 e0       	ldi	r23, 0x00	; 0
    1ebc:	0e 94 26 0e 	call	0x1c4c	; 0x1c4c <print_timeDot>
		print_minute(m, tempXPos + SPACE_TO_DOTS);
    1ec0:	bc 01       	movw	r22, r24
    1ec2:	6c 5f       	subi	r22, 0xFC	; 252
    1ec4:	7f 4f       	sbci	r23, 0xFF	; 255
    1ec6:	ce 01       	movw	r24, r28
    1ec8:	0e 94 fe 0e 	call	0x1dfc	; 0x1dfc <print_minute>
	}
    1ecc:	df 91       	pop	r29
    1ece:	cf 91       	pop	r28
    1ed0:	1f 91       	pop	r17
    1ed2:	0f 91       	pop	r16
    1ed4:	08 95       	ret

00001ed6 <get_stringWidth>:
		}
	}
	
	int get_stringWidth(int string [], int length){//in px
		int width = -1;
		for(int i = 0; i < length; i++){
    1ed6:	16 16       	cp	r1, r22
    1ed8:	17 06       	cpc	r1, r23
    1eda:	c4 f4       	brge	.+48     	; 0x1f0c <get_stringWidth+0x36>
    1edc:	dc 01       	movw	r26, r24
    1ede:	66 0f       	add	r22, r22
    1ee0:	77 1f       	adc	r23, r23
    1ee2:	68 0f       	add	r22, r24
    1ee4:	79 1f       	adc	r23, r25
    1ee6:	8f ef       	ldi	r24, 0xFF	; 255
    1ee8:	9f ef       	ldi	r25, 0xFF	; 255
			if(string[i] < 0){
    1eea:	ed 91       	ld	r30, X+
    1eec:	fd 91       	ld	r31, X+
    1eee:	ff 23       	and	r31, r31
    1ef0:	14 f4       	brge	.+4      	; 0x1ef6 <get_stringWidth+0x20>
				width += 3;
    1ef2:	03 96       	adiw	r24, 0x03	; 3
    1ef4:	07 c0       	rjmp	.+14     	; 0x1f04 <get_stringWidth+0x2e>
			} else {
				width += pgm_read_byte(&alphaWidth[string[i]])+1;
    1ef6:	e0 5a       	subi	r30, 0xA0	; 160
    1ef8:	fe 4f       	sbci	r31, 0xFE	; 254
    1efa:	e4 91       	lpm	r30, Z
    1efc:	f0 e0       	ldi	r31, 0x00	; 0
    1efe:	31 96       	adiw	r30, 0x01	; 1
    1f00:	8e 0f       	add	r24, r30
    1f02:	9f 1f       	adc	r25, r31
		}
	}
	
	int get_stringWidth(int string [], int length){//in px
		int width = -1;
		for(int i = 0; i < length; i++){
    1f04:	a6 17       	cp	r26, r22
    1f06:	b7 07       	cpc	r27, r23
    1f08:	81 f7       	brne	.-32     	; 0x1eea <get_stringWidth+0x14>
    1f0a:	08 95       	ret
			print_month(xPosDate + get_dayWidth() + 6, yPos); //Monat ..+6=Punkt+Leerzeichen
		}
	}
	
	int get_stringWidth(int string [], int length){//in px
		int width = -1;
    1f0c:	8f ef       	ldi	r24, 0xFF	; 255
    1f0e:	9f ef       	ldi	r25, 0xFF	; 255
			} else {
				width += pgm_read_byte(&alphaWidth[string[i]])+1;
			}
		}
		return width;
	}
    1f10:	08 95       	ret

00001f12 <print_month>:
	
    int get_dateWidth(){
		return get_dayWidth() + get_monthWidth() + 6;	
	}
	
	void print_month(int xPos, int yPos) {
    1f12:	8f 92       	push	r8
    1f14:	9f 92       	push	r9
    1f16:	af 92       	push	r10
    1f18:	bf 92       	push	r11
    1f1a:	cf 92       	push	r12
    1f1c:	df 92       	push	r13
    1f1e:	ef 92       	push	r14
    1f20:	ff 92       	push	r15
    1f22:	0f 93       	push	r16
    1f24:	1f 93       	push	r17
    1f26:	cf 93       	push	r28
    1f28:	df 93       	push	r29
    1f2a:	7c 01       	movw	r14, r24
		int tempXPos = xPos;
		int tempYPos = yPos;
		int tempLetter;		
		for (int i=0; i<maxMonthLength; i++) {
    1f2c:	c0 e0       	ldi	r28, 0x00	; 0
    1f2e:	d0 e0       	ldi	r29, 0x00	; 0
			tempLetter = pgm_read_byte(&months[month][i]);
			if (tempLetter<54) {
				if((tempLetter == 6) || (tempLetter == 15) || (tempLetter == 16) || (tempLetter == 24)) {
					tempYPos = yPos + 1;
    1f30:	6b 01       	movw	r12, r22
    1f32:	8f ef       	ldi	r24, 0xFF	; 255
    1f34:	c8 1a       	sub	r12, r24
    1f36:	d8 0a       	sbc	r13, r24
				} else {
					tempYPos = yPos;
    1f38:	a6 2e       	mov	r10, r22
    1f3a:	b7 2e       	mov	r11, r23
	void print_month(int xPos, int yPos) {
		int tempXPos = xPos;
		int tempYPos = yPos;
		int tempLetter;		
		for (int i=0; i<maxMonthLength; i++) {
			tempLetter = pgm_read_byte(&months[month][i]);
    1f3c:	40 91 04 01 	lds	r20, 0x0104
    1f40:	50 91 05 01 	lds	r21, 0x0105
    1f44:	fa 01       	movw	r30, r20
    1f46:	ee 0f       	add	r30, r30
    1f48:	ff 1f       	adc	r31, r31
    1f4a:	ee 0f       	add	r30, r30
    1f4c:	ff 1f       	adc	r31, r31
    1f4e:	ee 0f       	add	r30, r30
    1f50:	ff 1f       	adc	r31, r31
    1f52:	e4 0f       	add	r30, r20
    1f54:	f5 1f       	adc	r31, r21
    1f56:	ec 0f       	add	r30, r28
    1f58:	fd 1f       	adc	r31, r29
    1f5a:	ee 0f       	add	r30, r30
    1f5c:	ff 1f       	adc	r31, r31
    1f5e:	e8 57       	subi	r30, 0x78	; 120
    1f60:	ff 4f       	sbci	r31, 0xFF	; 255
    1f62:	e4 91       	lpm	r30, Z
    1f64:	4e 2f       	mov	r20, r30
    1f66:	50 e0       	ldi	r21, 0x00	; 0
			if (tempLetter<54) {
    1f68:	46 33       	cpi	r20, 0x36	; 54
    1f6a:	51 05       	cpc	r21, r1
    1f6c:	3c f5       	brge	.+78     	; 0x1fbc <print_month+0xaa>
				if((tempLetter == 6) || (tempLetter == 15) || (tempLetter == 16) || (tempLetter == 24)) {
    1f6e:	46 30       	cpi	r20, 0x06	; 6
    1f70:	51 05       	cpc	r21, r1
    1f72:	31 f0       	breq	.+12     	; 0x1f80 <print_month+0x6e>
    1f74:	ef 50       	subi	r30, 0x0F	; 15
    1f76:	e2 30       	cpi	r30, 0x02	; 2
    1f78:	18 f0       	brcs	.+6      	; 0x1f80 <print_month+0x6e>
    1f7a:	48 31       	cpi	r20, 0x18	; 24
    1f7c:	51 05       	cpc	r21, r1
    1f7e:	19 f4       	brne	.+6      	; 0x1f86 <print_month+0x74>
					tempYPos = yPos + 1;
    1f80:	0c 2d       	mov	r16, r12
    1f82:	1d 2d       	mov	r17, r13
    1f84:	02 c0       	rjmp	.+4      	; 0x1f8a <print_month+0x78>
				} else {
					tempYPos = yPos;
    1f86:	0a 2d       	mov	r16, r10
    1f88:	1b 2d       	mov	r17, r11
				}
				if(tempLetter == 1) {
    1f8a:	41 30       	cpi	r20, 0x01	; 1
    1f8c:	51 05       	cpc	r21, r1
    1f8e:	19 f4       	brne	.+6      	; 0x1f96 <print_month+0x84>
					tempXPos --;
    1f90:	91 e0       	ldi	r25, 0x01	; 1
    1f92:	e9 1a       	sub	r14, r25
    1f94:	f1 08       	sbc	r15, r1
				}
				print_letter(alphaHeight, pgm_read_byte(&alphaWidth[tempLetter]), tempLetter, tempXPos, tempYPos);
    1f96:	fa 01       	movw	r30, r20
    1f98:	e0 5a       	subi	r30, 0xA0	; 160
    1f9a:	fe 4f       	sbci	r31, 0xFE	; 254
    1f9c:	4f 01       	movw	r8, r30
    1f9e:	64 91       	lpm	r22, Z
    1fa0:	70 e0       	ldi	r23, 0x00	; 0
    1fa2:	97 01       	movw	r18, r14
    1fa4:	80 e1       	ldi	r24, 0x10	; 16
    1fa6:	90 e0       	ldi	r25, 0x00	; 0
    1fa8:	0e 94 ed 08 	call	0x11da	; 0x11da <print_letter>
				tempXPos+=pgm_read_byte(&alphaWidth[tempLetter])+1;
    1fac:	f4 01       	movw	r30, r8
    1fae:	84 90       	lpm	r8, Z
    1fb0:	91 2c       	mov	r9, r1
    1fb2:	ff ef       	ldi	r31, 0xFF	; 255
    1fb4:	8f 1a       	sub	r8, r31
    1fb6:	9f 0a       	sbc	r9, r31
    1fb8:	e8 0c       	add	r14, r8
    1fba:	f9 1c       	adc	r15, r9
	
	void print_month(int xPos, int yPos) {
		int tempXPos = xPos;
		int tempYPos = yPos;
		int tempLetter;		
		for (int i=0; i<maxMonthLength; i++) {
    1fbc:	21 96       	adiw	r28, 0x01	; 1
    1fbe:	c9 30       	cpi	r28, 0x09	; 9
    1fc0:	d1 05       	cpc	r29, r1
    1fc2:	09 f0       	breq	.+2      	; 0x1fc6 <print_month+0xb4>
    1fc4:	bb cf       	rjmp	.-138    	; 0x1f3c <print_month+0x2a>
				}
				print_letter(alphaHeight, pgm_read_byte(&alphaWidth[tempLetter]), tempLetter, tempXPos, tempYPos);
				tempXPos+=pgm_read_byte(&alphaWidth[tempLetter])+1;
			}
		}
	}
    1fc6:	df 91       	pop	r29
    1fc8:	cf 91       	pop	r28
    1fca:	1f 91       	pop	r17
    1fcc:	0f 91       	pop	r16
    1fce:	ff 90       	pop	r15
    1fd0:	ef 90       	pop	r14
    1fd2:	df 90       	pop	r13
    1fd4:	cf 90       	pop	r12
    1fd6:	bf 90       	pop	r11
    1fd8:	af 90       	pop	r10
    1fda:	9f 90       	pop	r9
    1fdc:	8f 90       	pop	r8
    1fde:	08 95       	ret

00001fe0 <print_day>:
	
	
	
	void print_day(int xPos, int yPos) {
    1fe0:	cf 92       	push	r12
    1fe2:	df 92       	push	r13
    1fe4:	ef 92       	push	r14
    1fe6:	ff 92       	push	r15
    1fe8:	0f 93       	push	r16
    1fea:	1f 93       	push	r17
    1fec:	cf 93       	push	r28
    1fee:	df 93       	push	r29
    1ff0:	ec 01       	movw	r28, r24
    1ff2:	7b 01       	movw	r14, r22
		int tempDay = day;
    1ff4:	40 91 06 01 	lds	r20, 0x0106
    1ff8:	50 91 07 01 	lds	r21, 0x0107
		if(tempDay > 9) {
    1ffc:	4a 30       	cpi	r20, 0x0A	; 10
    1ffe:	51 05       	cpc	r21, r1
    2000:	cc f0       	brlt	.+50     	; 0x2034 <print_day+0x54>
			print_smallNumber(xPos, yPos, tempDay/10);
    2002:	ca 01       	movw	r24, r20
    2004:	6a e0       	ldi	r22, 0x0A	; 10
    2006:	70 e0       	ldi	r23, 0x00	; 0
    2008:	0e 94 6f 22 	call	0x44de	; 0x44de <__divmodhi4>
    200c:	8b 01       	movw	r16, r22
    200e:	6c 01       	movw	r12, r24
    2010:	ab 01       	movw	r20, r22
    2012:	b7 01       	movw	r22, r14
    2014:	ce 01       	movw	r24, r28
    2016:	0e 94 63 09 	call	0x12c6	; 0x12c6 <print_smallNumber>
			print_smallNumber(xPos + pgm_read_byte(&smallNumberWidth[tempDay/10]) + 1, yPos, tempDay%10);
    201a:	f8 01       	movw	r30, r16
    201c:	ee 53       	subi	r30, 0x3E	; 62
    201e:	fb 4f       	sbci	r31, 0xFB	; 251
    2020:	e4 91       	lpm	r30, Z
    2022:	ce 01       	movw	r24, r28
    2024:	8e 0f       	add	r24, r30
    2026:	91 1d       	adc	r25, r1
    2028:	a6 01       	movw	r20, r12
    202a:	b7 01       	movw	r22, r14
    202c:	01 96       	adiw	r24, 0x01	; 1
    202e:	0e 94 63 09 	call	0x12c6	; 0x12c6 <print_smallNumber>
    2032:	02 c0       	rjmp	.+4      	; 0x2038 <print_day+0x58>
		} else {
			print_smallNumber(xPos, yPos, tempDay);
    2034:	0e 94 63 09 	call	0x12c6	; 0x12c6 <print_smallNumber>
		}
	}
    2038:	df 91       	pop	r29
    203a:	cf 91       	pop	r28
    203c:	1f 91       	pop	r17
    203e:	0f 91       	pop	r16
    2040:	ff 90       	pop	r15
    2042:	ef 90       	pop	r14
    2044:	df 90       	pop	r13
    2046:	cf 90       	pop	r12
    2048:	08 95       	ret

0000204a <get_yearWidth>:
		print_smallNumber(xPos, YPOS_YEAR, tempYear);
		xPos += pgm_read_byte(&smallNumberWidth[tempYear]);

	}
	
	int get_yearWidth(){
    204a:	cf 93       	push	r28
    204c:	df 93       	push	r29
		int width = -1;
		int tempYear = year;
    204e:	80 91 02 01 	lds	r24, 0x0102
    2052:	90 91 03 01 	lds	r25, 0x0103
		while(tempYear > 0) {
    2056:	18 16       	cp	r1, r24
    2058:	19 06       	cpc	r1, r25
    205a:	ac f4       	brge	.+42     	; 0x2086 <get_yearWidth+0x3c>
    205c:	2f ef       	ldi	r18, 0xFF	; 255
    205e:	3f ef       	ldi	r19, 0xFF	; 255
			width += pgm_read_byte(&smallNumberWidth[tempYear%10])+1;
    2060:	ca e0       	ldi	r28, 0x0A	; 10
    2062:	d0 e0       	ldi	r29, 0x00	; 0
    2064:	be 01       	movw	r22, r28
    2066:	0e 94 6f 22 	call	0x44de	; 0x44de <__divmodhi4>
    206a:	fc 01       	movw	r30, r24
    206c:	ee 53       	subi	r30, 0x3E	; 62
    206e:	fb 4f       	sbci	r31, 0xFB	; 251
    2070:	e4 91       	lpm	r30, Z
    2072:	f0 e0       	ldi	r31, 0x00	; 0
    2074:	31 96       	adiw	r30, 0x01	; 1
    2076:	2e 0f       	add	r18, r30
    2078:	3f 1f       	adc	r19, r31
			tempYear /= 10;
    207a:	86 2f       	mov	r24, r22
    207c:	97 2f       	mov	r25, r23
	}
	
	int get_yearWidth(){
		int width = -1;
		int tempYear = year;
		while(tempYear > 0) {
    207e:	18 16       	cp	r1, r24
    2080:	19 06       	cpc	r1, r25
    2082:	84 f3       	brlt	.-32     	; 0x2064 <get_yearWidth+0x1a>
    2084:	02 c0       	rjmp	.+4      	; 0x208a <get_yearWidth+0x40>
		xPos += pgm_read_byte(&smallNumberWidth[tempYear]);

	}
	
	int get_yearWidth(){
		int width = -1;
    2086:	2f ef       	ldi	r18, 0xFF	; 255
    2088:	3f ef       	ldi	r19, 0xFF	; 255
		while(tempYear > 0) {
			width += pgm_read_byte(&smallNumberWidth[tempYear%10])+1;
			tempYear /= 10;
		}
		return width;
	}
    208a:	c9 01       	movw	r24, r18
    208c:	df 91       	pop	r29
    208e:	cf 91       	pop	r28
    2090:	08 95       	ret

00002092 <get_yearXPos>:
			print_smallNumber(xPos, yPos, tempDay);
		}
	}
	
	int get_yearXPos(){
		return (127 - get_yearWidth()) / 2 + 1;
    2092:	0e 94 25 10 	call	0x204a	; 0x204a <get_yearWidth>
    2096:	2f e7       	ldi	r18, 0x7F	; 127
    2098:	30 e0       	ldi	r19, 0x00	; 0
    209a:	28 1b       	sub	r18, r24
    209c:	39 0b       	sbc	r19, r25
    209e:	c9 01       	movw	r24, r18
    20a0:	99 23       	and	r25, r25
    20a2:	0c f4       	brge	.+2      	; 0x20a6 <get_yearXPos+0x14>
    20a4:	01 96       	adiw	r24, 0x01	; 1
    20a6:	95 95       	asr	r25
    20a8:	87 95       	ror	r24
	}
    20aa:	01 96       	adiw	r24, 0x01	; 1
    20ac:	08 95       	ret

000020ae <print_year>:
	
	void print_year(){
    20ae:	cf 92       	push	r12
    20b0:	df 92       	push	r13
    20b2:	ef 92       	push	r14
    20b4:	ff 92       	push	r15
    20b6:	0f 93       	push	r16
    20b8:	1f 93       	push	r17
    20ba:	cf 93       	push	r28
    20bc:	df 93       	push	r29
		int xPos = get_yearXPos();
    20be:	0e 94 49 10 	call	0x2092	; 0x2092 <get_yearXPos>
    20c2:	6c 01       	movw	r12, r24
		int tempYear = year;
    20c4:	80 91 02 01 	lds	r24, 0x0102
    20c8:	90 91 03 01 	lds	r25, 0x0103
		
		print_smallNumber(xPos, YPOS_YEAR, tempYear /1000);
    20cc:	68 ee       	ldi	r22, 0xE8	; 232
    20ce:	73 e0       	ldi	r23, 0x03	; 3
    20d0:	0e 94 6f 22 	call	0x44de	; 0x44de <__divmodhi4>
    20d4:	eb 01       	movw	r28, r22
    20d6:	7c 01       	movw	r14, r24
    20d8:	ab 01       	movw	r20, r22
    20da:	68 e2       	ldi	r22, 0x28	; 40
    20dc:	70 e0       	ldi	r23, 0x00	; 0
    20de:	c6 01       	movw	r24, r12
    20e0:	0e 94 63 09 	call	0x12c6	; 0x12c6 <print_smallNumber>
		xPos += pgm_read_byte(&smallNumberWidth[tempYear / 1000])+1;
    20e4:	fe 01       	movw	r30, r28
    20e6:	ee 53       	subi	r30, 0x3E	; 62
    20e8:	fb 4f       	sbci	r31, 0xFB	; 251
    20ea:	04 91       	lpm	r16, Z
    20ec:	10 e0       	ldi	r17, 0x00	; 0
    20ee:	0f 5f       	subi	r16, 0xFF	; 255
    20f0:	1f 4f       	sbci	r17, 0xFF	; 255
    20f2:	0c 0d       	add	r16, r12
    20f4:	1d 1d       	adc	r17, r13
		tempYear -= tempYear / 1000 * 1000;
		
		print_smallNumber(xPos, YPOS_YEAR, tempYear /100);
    20f6:	c7 01       	movw	r24, r14
    20f8:	64 e6       	ldi	r22, 0x64	; 100
    20fa:	70 e0       	ldi	r23, 0x00	; 0
    20fc:	0e 94 6f 22 	call	0x44de	; 0x44de <__divmodhi4>
    2100:	eb 01       	movw	r28, r22
    2102:	7c 01       	movw	r14, r24
    2104:	ab 01       	movw	r20, r22
    2106:	68 e2       	ldi	r22, 0x28	; 40
    2108:	70 e0       	ldi	r23, 0x00	; 0
    210a:	c8 01       	movw	r24, r16
    210c:	0e 94 63 09 	call	0x12c6	; 0x12c6 <print_smallNumber>
		xPos += pgm_read_byte(&smallNumberWidth[tempYear / 100])+1;
    2110:	fe 01       	movw	r30, r28
    2112:	ee 53       	subi	r30, 0x3E	; 62
    2114:	fb 4f       	sbci	r31, 0xFB	; 251
    2116:	c4 91       	lpm	r28, Z
    2118:	d0 e0       	ldi	r29, 0x00	; 0
    211a:	21 96       	adiw	r28, 0x01	; 1
    211c:	0c 0f       	add	r16, r28
    211e:	1d 1f       	adc	r17, r29
		tempYear -= tempYear / 100 * 100;
		
		print_smallNumber(xPos, YPOS_YEAR, tempYear /10);
    2120:	c7 01       	movw	r24, r14
    2122:	6a e0       	ldi	r22, 0x0A	; 10
    2124:	70 e0       	ldi	r23, 0x00	; 0
    2126:	0e 94 6f 22 	call	0x44de	; 0x44de <__divmodhi4>
    212a:	eb 01       	movw	r28, r22
    212c:	7c 01       	movw	r14, r24
    212e:	ab 01       	movw	r20, r22
    2130:	68 e2       	ldi	r22, 0x28	; 40
    2132:	70 e0       	ldi	r23, 0x00	; 0
    2134:	c8 01       	movw	r24, r16
    2136:	0e 94 63 09 	call	0x12c6	; 0x12c6 <print_smallNumber>
		xPos += pgm_read_byte(&smallNumberWidth[tempYear / 10])+1;
    213a:	fe 01       	movw	r30, r28
    213c:	ee 53       	subi	r30, 0x3E	; 62
    213e:	fb 4f       	sbci	r31, 0xFB	; 251
    2140:	c4 91       	lpm	r28, Z
    2142:	d0 e0       	ldi	r29, 0x00	; 0
    2144:	ce 01       	movw	r24, r28
    2146:	01 96       	adiw	r24, 0x01	; 1
		tempYear -= tempYear / 10 * 10;
		
		print_smallNumber(xPos, YPOS_YEAR, tempYear);
    2148:	a7 01       	movw	r20, r14
    214a:	68 e2       	ldi	r22, 0x28	; 40
    214c:	70 e0       	ldi	r23, 0x00	; 0
    214e:	80 0f       	add	r24, r16
    2150:	91 1f       	adc	r25, r17
    2152:	0e 94 63 09 	call	0x12c6	; 0x12c6 <print_smallNumber>
		xPos += pgm_read_byte(&smallNumberWidth[tempYear]);
    2156:	f7 01       	movw	r30, r14
    2158:	ee 53       	subi	r30, 0x3E	; 62
    215a:	fb 4f       	sbci	r31, 0xFB	; 251
    215c:	e4 91       	lpm	r30, Z

	}
    215e:	df 91       	pop	r29
    2160:	cf 91       	pop	r28
    2162:	1f 91       	pop	r17
    2164:	0f 91       	pop	r16
    2166:	ff 90       	pop	r15
    2168:	ef 90       	pop	r14
    216a:	df 90       	pop	r13
    216c:	cf 90       	pop	r12
    216e:	08 95       	ret

00002170 <get_dayWidth>:
			tempYear /= 10;
		}
		return width;
	}
	
	int get_dayWidth() {
    2170:	cf 93       	push	r28
    2172:	df 93       	push	r29
		int tempDay = day;
    2174:	c0 91 06 01 	lds	r28, 0x0106
    2178:	d0 91 07 01 	lds	r29, 0x0107
		int width = -1;	
		width += pgm_read_byte(&smallNumberWidth[tempDay%10])+1; //+1fr Leerzeichen
    217c:	ce 01       	movw	r24, r28
    217e:	6a e0       	ldi	r22, 0x0A	; 10
    2180:	70 e0       	ldi	r23, 0x00	; 0
    2182:	0e 94 6f 22 	call	0x44de	; 0x44de <__divmodhi4>
    2186:	fc 01       	movw	r30, r24
    2188:	ee 53       	subi	r30, 0x3E	; 62
    218a:	fb 4f       	sbci	r31, 0xFB	; 251
    218c:	e4 91       	lpm	r30, Z
    218e:	2e 2f       	mov	r18, r30
    2190:	30 e0       	ldi	r19, 0x00	; 0
		if(day > 9) {
    2192:	ca 30       	cpi	r28, 0x0A	; 10
    2194:	d1 05       	cpc	r29, r1
    2196:	6c f0       	brlt	.+26     	; 0x21b2 <get_dayWidth+0x42>
			width += pgm_read_byte(&smallNumberWidth[tempDay/10])+1;
    2198:	ce 01       	movw	r24, r28
    219a:	6a e0       	ldi	r22, 0x0A	; 10
    219c:	70 e0       	ldi	r23, 0x00	; 0
    219e:	0e 94 6f 22 	call	0x44de	; 0x44de <__divmodhi4>
    21a2:	fb 01       	movw	r30, r22
    21a4:	ee 53       	subi	r30, 0x3E	; 62
    21a6:	fb 4f       	sbci	r31, 0xFB	; 251
    21a8:	e4 91       	lpm	r30, Z
    21aa:	f0 e0       	ldi	r31, 0x00	; 0
    21ac:	31 96       	adiw	r30, 0x01	; 1
    21ae:	2e 0f       	add	r18, r30
    21b0:	3f 1f       	adc	r19, r31
		}
		return width;
	}
    21b2:	c9 01       	movw	r24, r18
    21b4:	df 91       	pop	r29
    21b6:	cf 91       	pop	r28
    21b8:	08 95       	ret

000021ba <get_monthWidth>:
	
	int get_monthWidth() {
    21ba:	60 91 04 01 	lds	r22, 0x0104
    21be:	70 91 05 01 	lds	r23, 0x0105
    21c2:	66 0f       	add	r22, r22
    21c4:	77 1f       	adc	r23, r23
    21c6:	cb 01       	movw	r24, r22
    21c8:	88 0f       	add	r24, r24
    21ca:	99 1f       	adc	r25, r25
    21cc:	88 0f       	add	r24, r24
    21ce:	99 1f       	adc	r25, r25
    21d0:	88 0f       	add	r24, r24
    21d2:	99 1f       	adc	r25, r25
    21d4:	68 0f       	add	r22, r24
    21d6:	79 1f       	adc	r23, r25
    21d8:	ab 01       	movw	r20, r22
    21da:	48 57       	subi	r20, 0x78	; 120
    21dc:	5f 4f       	sbci	r21, 0xFF	; 255
    21de:	66 56       	subi	r22, 0x66	; 102
    21e0:	7f 4f       	sbci	r23, 0xFF	; 255
		int width = -1;
    21e2:	8f ef       	ldi	r24, 0xFF	; 255
    21e4:	9f ef       	ldi	r25, 0xFF	; 255
		int tempLetter;
		for (int i = 0; i<maxMonthLength; i++) {
			tempLetter = pgm_read_byte(&months[month][i]);
    21e6:	fa 01       	movw	r30, r20
    21e8:	24 91       	lpm	r18, Z
    21ea:	30 e0       	ldi	r19, 0x00	; 0
			if(tempLetter == 53) { //53 => empty
    21ec:	25 33       	cpi	r18, 0x35	; 53
    21ee:	31 05       	cpc	r19, r1
    21f0:	49 f0       	breq	.+18     	; 0x2204 <get_monthWidth+0x4a>
				
			} else {
				width += pgm_read_byte(&alphaWidth[tempLetter])+1;
    21f2:	f9 01       	movw	r30, r18
    21f4:	e0 5a       	subi	r30, 0xA0	; 160
    21f6:	fe 4f       	sbci	r31, 0xFE	; 254
    21f8:	24 91       	lpm	r18, Z
    21fa:	30 e0       	ldi	r19, 0x00	; 0
    21fc:	2f 5f       	subi	r18, 0xFF	; 255
    21fe:	3f 4f       	sbci	r19, 0xFF	; 255
    2200:	82 0f       	add	r24, r18
    2202:	93 1f       	adc	r25, r19
    2204:	4e 5f       	subi	r20, 0xFE	; 254
    2206:	5f 4f       	sbci	r21, 0xFF	; 255
	}
	
	int get_monthWidth() {
		int width = -1;
		int tempLetter;
		for (int i = 0; i<maxMonthLength; i++) {
    2208:	46 17       	cp	r20, r22
    220a:	57 07       	cpc	r21, r23
    220c:	61 f7       	brne	.-40     	; 0x21e6 <get_monthWidth+0x2c>
			} else {
				width += pgm_read_byte(&alphaWidth[tempLetter])+1;
			}
		}
		return width;
	}
    220e:	08 95       	ret

00002210 <get_dateWidth>:
			}
		}
		return width;
	}
	
    int get_dateWidth(){
    2210:	cf 93       	push	r28
    2212:	df 93       	push	r29
		return get_dayWidth() + get_monthWidth() + 6;	
    2214:	0e 94 b8 10 	call	0x2170	; 0x2170 <get_dayWidth>
    2218:	ec 01       	movw	r28, r24
    221a:	0e 94 dd 10 	call	0x21ba	; 0x21ba <get_monthWidth>
    221e:	8c 0f       	add	r24, r28
    2220:	9d 1f       	adc	r25, r29
	}
    2222:	06 96       	adiw	r24, 0x06	; 6
    2224:	df 91       	pop	r29
    2226:	cf 91       	pop	r28
    2228:	08 95       	ret

0000222a <get_dateXPos>:
}



int get_dateXPos() {
	return ((127 - get_dateWidth()) / 2 + 1);
    222a:	0e 94 08 11 	call	0x2210	; 0x2210 <get_dateWidth>
    222e:	2f e7       	ldi	r18, 0x7F	; 127
    2230:	30 e0       	ldi	r19, 0x00	; 0
    2232:	28 1b       	sub	r18, r24
    2234:	39 0b       	sbc	r19, r25
    2236:	c9 01       	movw	r24, r18
    2238:	99 23       	and	r25, r25
    223a:	0c f4       	brge	.+2      	; 0x223e <get_dateXPos+0x14>
    223c:	01 96       	adiw	r24, 0x01	; 1
    223e:	95 95       	asr	r25
    2240:	87 95       	ror	r24
}
    2242:	01 96       	adiw	r24, 0x01	; 1
    2244:	08 95       	ret

00002246 <convertString>:
			}
		}
		return width;
	}
	
	void convertString(char string[], int asciiArr[]) {
    2246:	1f 93       	push	r17
    2248:	cf 93       	push	r28
    224a:	df 93       	push	r29
    224c:	dc 01       	movw	r26, r24
    224e:	ec 01       	movw	r28, r24
		int index; //Index fr das hinterlegte Alphabet-Array
		for(int i = 0; i<strlen(string); i++) {
    2250:	40 e0       	ldi	r20, 0x00	; 0
    2252:	50 e0       	ldi	r21, 0x00	; 0
				switch((int)string[i]){
					case 252: index=55; break;//
					case 228: index=52;break; //
					case 46:  index=54; break;//.
					case 32:  index=-1; break;//Leerzeichen
					default: index = -1;
    2254:	1f ef       	ldi	r17, 0xFF	; 255
    2256:	9f ef       	ldi	r25, 0xFF	; 255
		return width;
	}
	
	void convertString(char string[], int asciiArr[]) {
		int index; //Index fr das hinterlegte Alphabet-Array
		for(int i = 0; i<strlen(string); i++) {
    2258:	30 c0       	rjmp	.+96     	; 0x22ba <convertString+0x74>
			//ASCII-Dezimalzahl des Zeichens umwandeln
			if(((int)string[i]>64) && ((int)string[i]<91)) {
    225a:	29 91       	ld	r18, Y+
    225c:	8f eb       	ldi	r24, 0xBF	; 191
    225e:	82 0f       	add	r24, r18
    2260:	8a 31       	cpi	r24, 0x1A	; 26
    2262:	20 f4       	brcc	.+8      	; 0x226c <convertString+0x26>
				//Grobuchstabe
				index = (int)string[i]-65+26;
    2264:	30 e0       	ldi	r19, 0x00	; 0
    2266:	27 52       	subi	r18, 0x27	; 39
    2268:	31 09       	sbc	r19, r1
    226a:	21 c0       	rjmp	.+66     	; 0x22ae <convertString+0x68>
			} else if( ((int)string[i]>96) && ((int)string[i]<123) ){
    226c:	8f e9       	ldi	r24, 0x9F	; 159
    226e:	82 0f       	add	r24, r18
    2270:	8a 31       	cpi	r24, 0x1A	; 26
    2272:	20 f4       	brcc	.+8      	; 0x227c <convertString+0x36>
				//Kleinbuchstabe
				index = (int)string[i]-97;
    2274:	30 e0       	ldi	r19, 0x00	; 0
    2276:	21 56       	subi	r18, 0x61	; 97
    2278:	31 09       	sbc	r19, r1
    227a:	19 c0       	rjmp	.+50     	; 0x22ae <convertString+0x68>
			} else {
				//Sonderzeichen
				switch((int)string[i]){
    227c:	2e 32       	cpi	r18, 0x2E	; 46
    227e:	61 f0       	breq	.+24     	; 0x2298 <convertString+0x52>
    2280:	18 f4       	brcc	.+6      	; 0x2288 <convertString+0x42>
    2282:	20 32       	cpi	r18, 0x20	; 32
    2284:	61 f0       	breq	.+24     	; 0x229e <convertString+0x58>
    2286:	0e c0       	rjmp	.+28     	; 0x22a4 <convertString+0x5e>
    2288:	24 3e       	cpi	r18, 0xE4	; 228
    228a:	19 f0       	breq	.+6      	; 0x2292 <convertString+0x4c>
    228c:	2c 3f       	cpi	r18, 0xFC	; 252
    228e:	69 f0       	breq	.+26     	; 0x22aa <convertString+0x64>
    2290:	09 c0       	rjmp	.+18     	; 0x22a4 <convertString+0x5e>
					case 252: index=55; break;//
					case 228: index=52;break; //
    2292:	24 e3       	ldi	r18, 0x34	; 52
    2294:	30 e0       	ldi	r19, 0x00	; 0
    2296:	0b c0       	rjmp	.+22     	; 0x22ae <convertString+0x68>
					case 46:  index=54; break;//.
    2298:	26 e3       	ldi	r18, 0x36	; 54
    229a:	30 e0       	ldi	r19, 0x00	; 0
    229c:	08 c0       	rjmp	.+16     	; 0x22ae <convertString+0x68>
					case 32:  index=-1; break;//Leerzeichen
    229e:	21 2f       	mov	r18, r17
    22a0:	39 2f       	mov	r19, r25
    22a2:	05 c0       	rjmp	.+10     	; 0x22ae <convertString+0x68>
					default: index = -1;
    22a4:	21 2f       	mov	r18, r17
    22a6:	39 2f       	mov	r19, r25
    22a8:	02 c0       	rjmp	.+4      	; 0x22ae <convertString+0x68>
				//Kleinbuchstabe
				index = (int)string[i]-97;
			} else {
				//Sonderzeichen
				switch((int)string[i]){
					case 252: index=55; break;//
    22aa:	27 e3       	ldi	r18, 0x37	; 55
    22ac:	30 e0       	ldi	r19, 0x00	; 0
					index = 54;
				if((int)string[i]==32)
					index = -1;*/
				
			}
			asciiArr[i] = index;
    22ae:	fb 01       	movw	r30, r22
    22b0:	21 93       	st	Z+, r18
    22b2:	31 93       	st	Z+, r19
    22b4:	bf 01       	movw	r22, r30
		return width;
	}
	
	void convertString(char string[], int asciiArr[]) {
		int index; //Index fr das hinterlegte Alphabet-Array
		for(int i = 0; i<strlen(string); i++) {
    22b6:	4f 5f       	subi	r20, 0xFF	; 255
    22b8:	5f 4f       	sbci	r21, 0xFF	; 255
    22ba:	fd 01       	movw	r30, r26
    22bc:	01 90       	ld	r0, Z+
    22be:	00 20       	and	r0, r0
    22c0:	e9 f7       	brne	.-6      	; 0x22bc <convertString+0x76>
    22c2:	31 97       	sbiw	r30, 0x01	; 1
    22c4:	ea 1b       	sub	r30, r26
    22c6:	fb 0b       	sbc	r31, r27
    22c8:	4e 17       	cp	r20, r30
    22ca:	5f 07       	cpc	r21, r31
    22cc:	30 f2       	brcs	.-116    	; 0x225a <convertString+0x14>
			asciiArr[i] = index;
		}
		/*print_smallNumber(50,40,(int)string[3]/100);
		print_smallNumber(60,40,(int)(string[3]-200)/10);
		print_smallNumber(70,40,(int)(string[3]-250));*/
	}
    22ce:	df 91       	pop	r29
    22d0:	cf 91       	pop	r28
    22d2:	1f 91       	pop	r17
    22d4:	08 95       	ret

000022d6 <print_menuItems>:
		btn_light_pushed = false;//Flag zurcksetzen
		sei();
	}
}

void print_menuItems(char item1[], char item2[], char item3[], char item4[]){
    22d6:	4f 92       	push	r4
    22d8:	5f 92       	push	r5
    22da:	6f 92       	push	r6
    22dc:	7f 92       	push	r7
    22de:	8f 92       	push	r8
    22e0:	9f 92       	push	r9
    22e2:	af 92       	push	r10
    22e4:	bf 92       	push	r11
    22e6:	cf 92       	push	r12
    22e8:	df 92       	push	r13
    22ea:	ef 92       	push	r14
    22ec:	ff 92       	push	r15
    22ee:	0f 93       	push	r16
    22f0:	1f 93       	push	r17
    22f2:	cf 93       	push	r28
    22f4:	df 93       	push	r29
    22f6:	cd b7       	in	r28, 0x3d	; 61
    22f8:	de b7       	in	r29, 0x3e	; 62
    22fa:	4c 01       	movw	r8, r24
    22fc:	5b 01       	movw	r10, r22
    22fe:	6a 01       	movw	r12, r20
    2300:	79 01       	movw	r14, r18
	convertString(item4, item4_ASCII);
	print_ASCIIString(xPosItem, yPosItem, item4_ASCII, sizeof(item4_ASCII)/sizeof(item4_ASCII[0]));
	
	//Haken
	print_symbol(16,17, hakenSymb,108,46);
}
    2302:	6d b6       	in	r6, 0x3d	; 61
    2304:	7e b6       	in	r7, 0x3e	; 62
		sei();
	}
}

void print_menuItems(char item1[], char item2[], char item3[], char item4[]){
	clear_pixelMatrix();
    2306:	0e 94 6b 0d 	call	0x1ad6	; 0x1ad6 <clear_pixelMatrix>
	int xPosItem = 20;
	int yPosItem = 3;
	
	//Item1
	int item1_ASCII [strlen(item1)];
    230a:	f4 01       	movw	r30, r8
    230c:	01 90       	ld	r0, Z+
    230e:	00 20       	and	r0, r0
    2310:	e9 f7       	brne	.-6      	; 0x230c <print_menuItems+0x36>
    2312:	31 97       	sbiw	r30, 0x01	; 1
    2314:	8f 01       	movw	r16, r30
    2316:	08 19       	sub	r16, r8
    2318:	19 09       	sbc	r17, r9
    231a:	00 0f       	add	r16, r16
    231c:	11 1f       	adc	r17, r17
    231e:	8d b7       	in	r24, 0x3d	; 61
    2320:	9e b7       	in	r25, 0x3e	; 62
    2322:	80 1b       	sub	r24, r16
    2324:	91 0b       	sbc	r25, r17
    2326:	0f b6       	in	r0, 0x3f	; 63
    2328:	f8 94       	cli
    232a:	9e bf       	out	0x3e, r25	; 62
    232c:	0f be       	out	0x3f, r0	; 63
    232e:	8d bf       	out	0x3d, r24	; 61
    2330:	01 96       	adiw	r24, 0x01	; 1
    2332:	2c 01       	movw	r4, r24
	convertString(item1, item1_ASCII);
    2334:	bc 01       	movw	r22, r24
    2336:	c4 01       	movw	r24, r8
    2338:	0e 94 23 11 	call	0x2246	; 0x2246 <convertString>
	print_ASCIIString(xPosItem, yPosItem, item1_ASCII, sizeof(item1_ASCII)/sizeof(item1_ASCII[0]));
    233c:	98 01       	movw	r18, r16
    233e:	36 95       	lsr	r19
    2340:	27 95       	ror	r18
    2342:	a2 01       	movw	r20, r4
    2344:	63 e0       	ldi	r22, 0x03	; 3
    2346:	70 e0       	ldi	r23, 0x00	; 0
    2348:	84 e1       	ldi	r24, 0x14	; 20
    234a:	90 e0       	ldi	r25, 0x00	; 0
    234c:	0e 94 2b 0d 	call	0x1a56	; 0x1a56 <print_ASCIIString>
	yPosItem += 15;

	//Item2
	int item2_ASCII [strlen(item2)];
    2350:	f5 01       	movw	r30, r10
    2352:	01 90       	ld	r0, Z+
    2354:	00 20       	and	r0, r0
    2356:	e9 f7       	brne	.-6      	; 0x2352 <print_menuItems+0x7c>
    2358:	31 97       	sbiw	r30, 0x01	; 1
    235a:	8f 01       	movw	r16, r30
    235c:	0a 19       	sub	r16, r10
    235e:	1b 09       	sbc	r17, r11
    2360:	00 0f       	add	r16, r16
    2362:	11 1f       	adc	r17, r17
    2364:	8d b7       	in	r24, 0x3d	; 61
    2366:	9e b7       	in	r25, 0x3e	; 62
    2368:	80 1b       	sub	r24, r16
    236a:	91 0b       	sbc	r25, r17
    236c:	0f b6       	in	r0, 0x3f	; 63
    236e:	f8 94       	cli
    2370:	9e bf       	out	0x3e, r25	; 62
    2372:	0f be       	out	0x3f, r0	; 63
    2374:	8d bf       	out	0x3d, r24	; 61
    2376:	01 96       	adiw	r24, 0x01	; 1
    2378:	4c 01       	movw	r8, r24
	convertString(item2, item2_ASCII);
    237a:	bc 01       	movw	r22, r24
    237c:	c5 01       	movw	r24, r10
    237e:	0e 94 23 11 	call	0x2246	; 0x2246 <convertString>
	print_ASCIIString(xPosItem, yPosItem, item2_ASCII, sizeof(item2_ASCII)/sizeof(item2_ASCII[0]));
    2382:	98 01       	movw	r18, r16
    2384:	36 95       	lsr	r19
    2386:	27 95       	ror	r18
    2388:	a4 01       	movw	r20, r8
    238a:	62 e1       	ldi	r22, 0x12	; 18
    238c:	70 e0       	ldi	r23, 0x00	; 0
    238e:	84 e1       	ldi	r24, 0x14	; 20
    2390:	90 e0       	ldi	r25, 0x00	; 0
    2392:	0e 94 2b 0d 	call	0x1a56	; 0x1a56 <print_ASCIIString>
	yPosItem += 15;

	//Item3
	int item3_ASCII [strlen(item3)];
    2396:	f6 01       	movw	r30, r12
    2398:	01 90       	ld	r0, Z+
    239a:	00 20       	and	r0, r0
    239c:	e9 f7       	brne	.-6      	; 0x2398 <print_menuItems+0xc2>
    239e:	31 97       	sbiw	r30, 0x01	; 1
    23a0:	ec 19       	sub	r30, r12
    23a2:	fd 09       	sbc	r31, r13
    23a4:	5f 01       	movw	r10, r30
    23a6:	aa 0c       	add	r10, r10
    23a8:	bb 1c       	adc	r11, r11
    23aa:	8d b7       	in	r24, 0x3d	; 61
    23ac:	9e b7       	in	r25, 0x3e	; 62
    23ae:	8a 19       	sub	r24, r10
    23b0:	9b 09       	sbc	r25, r11
    23b2:	0f b6       	in	r0, 0x3f	; 63
    23b4:	f8 94       	cli
    23b6:	9e bf       	out	0x3e, r25	; 62
    23b8:	0f be       	out	0x3f, r0	; 63
    23ba:	8d bf       	out	0x3d, r24	; 61
    23bc:	0d b7       	in	r16, 0x3d	; 61
    23be:	1e b7       	in	r17, 0x3e	; 62
    23c0:	0f 5f       	subi	r16, 0xFF	; 255
    23c2:	1f 4f       	sbci	r17, 0xFF	; 255
	convertString(item3, item3_ASCII);
    23c4:	b8 01       	movw	r22, r16
    23c6:	c6 01       	movw	r24, r12
    23c8:	0e 94 23 11 	call	0x2246	; 0x2246 <convertString>
	print_ASCIIString(xPosItem, yPosItem, item3_ASCII, sizeof(item3_ASCII)/sizeof(item3_ASCII[0]));
    23cc:	95 01       	movw	r18, r10
    23ce:	36 95       	lsr	r19
    23d0:	27 95       	ror	r18
    23d2:	a8 01       	movw	r20, r16
    23d4:	61 e2       	ldi	r22, 0x21	; 33
    23d6:	70 e0       	ldi	r23, 0x00	; 0
    23d8:	84 e1       	ldi	r24, 0x14	; 20
    23da:	90 e0       	ldi	r25, 0x00	; 0
    23dc:	0e 94 2b 0d 	call	0x1a56	; 0x1a56 <print_ASCIIString>
	yPosItem += 15;

	//Item4
	int item4_ASCII [strlen(item4)];
    23e0:	f7 01       	movw	r30, r14
    23e2:	01 90       	ld	r0, Z+
    23e4:	00 20       	and	r0, r0
    23e6:	e9 f7       	brne	.-6      	; 0x23e2 <print_menuItems+0x10c>
    23e8:	31 97       	sbiw	r30, 0x01	; 1
    23ea:	ee 19       	sub	r30, r14
    23ec:	ff 09       	sbc	r31, r15
    23ee:	6f 01       	movw	r12, r30
    23f0:	cc 0c       	add	r12, r12
    23f2:	dd 1c       	adc	r13, r13
    23f4:	8d b7       	in	r24, 0x3d	; 61
    23f6:	9e b7       	in	r25, 0x3e	; 62
    23f8:	8c 19       	sub	r24, r12
    23fa:	9d 09       	sbc	r25, r13
    23fc:	0f b6       	in	r0, 0x3f	; 63
    23fe:	f8 94       	cli
    2400:	9e bf       	out	0x3e, r25	; 62
    2402:	0f be       	out	0x3f, r0	; 63
    2404:	8d bf       	out	0x3d, r24	; 61
    2406:	0d b7       	in	r16, 0x3d	; 61
    2408:	1e b7       	in	r17, 0x3e	; 62
    240a:	0f 5f       	subi	r16, 0xFF	; 255
    240c:	1f 4f       	sbci	r17, 0xFF	; 255
	convertString(item4, item4_ASCII);
    240e:	b8 01       	movw	r22, r16
    2410:	c7 01       	movw	r24, r14
    2412:	0e 94 23 11 	call	0x2246	; 0x2246 <convertString>
	print_ASCIIString(xPosItem, yPosItem, item4_ASCII, sizeof(item4_ASCII)/sizeof(item4_ASCII[0]));
    2416:	96 01       	movw	r18, r12
    2418:	36 95       	lsr	r19
    241a:	27 95       	ror	r18
    241c:	a8 01       	movw	r20, r16
    241e:	60 e3       	ldi	r22, 0x30	; 48
    2420:	70 e0       	ldi	r23, 0x00	; 0
    2422:	84 e1       	ldi	r24, 0x14	; 20
    2424:	90 e0       	ldi	r25, 0x00	; 0
    2426:	0e 94 2b 0d 	call	0x1a56	; 0x1a56 <print_ASCIIString>
	
	//Haken
	print_symbol(16,17, hakenSymb,108,46);
    242a:	0e e2       	ldi	r16, 0x2E	; 46
    242c:	10 e0       	ldi	r17, 0x00	; 0
    242e:	2c e6       	ldi	r18, 0x6C	; 108
    2430:	30 e0       	ldi	r19, 0x00	; 0
    2432:	44 e8       	ldi	r20, 0x84	; 132
    2434:	51 e0       	ldi	r21, 0x01	; 1
    2436:	61 e1       	ldi	r22, 0x11	; 17
    2438:	70 e0       	ldi	r23, 0x00	; 0
    243a:	80 e1       	ldi	r24, 0x10	; 16
    243c:	90 e0       	ldi	r25, 0x00	; 0
    243e:	0e 94 59 08 	call	0x10b2	; 0x10b2 <print_symbol>
}
    2442:	0f b6       	in	r0, 0x3f	; 63
    2444:	f8 94       	cli
    2446:	7e be       	out	0x3e, r7	; 62
    2448:	0f be       	out	0x3f, r0	; 63
    244a:	6d be       	out	0x3d, r6	; 61
    244c:	df 91       	pop	r29
    244e:	cf 91       	pop	r28
    2450:	1f 91       	pop	r17
    2452:	0f 91       	pop	r16
    2454:	ff 90       	pop	r15
    2456:	ef 90       	pop	r14
    2458:	df 90       	pop	r13
    245a:	cf 90       	pop	r12
    245c:	bf 90       	pop	r11
    245e:	af 90       	pop	r10
    2460:	9f 90       	pop	r9
    2462:	8f 90       	pop	r8
    2464:	7f 90       	pop	r7
    2466:	6f 90       	pop	r6
    2468:	5f 90       	pop	r5
    246a:	4f 90       	pop	r4
    246c:	08 95       	ret

0000246e <print_date>:
		}
		print_bigNumber(tempX,timeYPos,min%10);

	}
	
	void print_date(int yPos) {
    246e:	af 92       	push	r10
    2470:	bf 92       	push	r11
    2472:	cf 92       	push	r12
    2474:	df 92       	push	r13
    2476:	ef 92       	push	r14
    2478:	ff 92       	push	r15
    247a:	0f 93       	push	r16
    247c:	1f 93       	push	r17
    247e:	cf 93       	push	r28
    2480:	df 93       	push	r29
    2482:	cd b7       	in	r28, 0x3d	; 61
    2484:	de b7       	in	r29, 0x3e	; 62
    2486:	c0 57       	subi	r28, 0x70	; 112
    2488:	d1 09       	sbc	r29, r1
    248a:	0f b6       	in	r0, 0x3f	; 63
    248c:	f8 94       	cli
    248e:	de bf       	out	0x3e, r29	; 62
    2490:	0f be       	out	0x3f, r0	; 63
    2492:	cd bf       	out	0x3d, r28	; 61
    2494:	6c 01       	movw	r12, r24
    2496:	00 e0       	ldi	r16, 0x00	; 0
		for(int x = 0; x<128; x++) {
			for(int y=yPos; y<yPos+18; y++ ){
    2498:	5c 01       	movw	r10, r24
    249a:	82 e1       	ldi	r24, 0x12	; 18
    249c:	a8 0e       	add	r10, r24
    249e:	b1 1c       	adc	r11, r1
    24a0:	ec 2c       	mov	r14, r12
    24a2:	0f 2e       	mov	r0, r31
    24a4:	f2 e1       	ldi	r31, 0x12	; 18
    24a6:	ff 2e       	mov	r15, r31
    24a8:	f0 2d       	mov	r31, r0
    24aa:	fc 0c       	add	r15, r12
    24ac:	0a c0       	rjmp	.+20     	; 0x24c2 <print_date+0x54>
				reset_pixel(x,y);
    24ae:	61 2f       	mov	r22, r17
    24b0:	80 2f       	mov	r24, r16
    24b2:	0e 94 06 08 	call	0x100c	; 0x100c <reset_pixel>
    24b6:	1f 5f       	subi	r17, 0xFF	; 255

	}
	
	void print_date(int yPos) {
		for(int x = 0; x<128; x++) {
			for(int y=yPos; y<yPos+18; y++ ){
    24b8:	1f 11       	cpse	r17, r15
    24ba:	f9 cf       	rjmp	.-14     	; 0x24ae <print_date+0x40>
    24bc:	0f 5f       	subi	r16, 0xFF	; 255
		print_bigNumber(tempX,timeYPos,min%10);

	}
	
	void print_date(int yPos) {
		for(int x = 0; x<128; x++) {
    24be:	00 38       	cpi	r16, 0x80	; 128
    24c0:	29 f0       	breq	.+10     	; 0x24cc <print_date+0x5e>
			for(int y=yPos; y<yPos+18; y++ ){
    24c2:	ca 14       	cp	r12, r10
    24c4:	db 04       	cpc	r13, r11
    24c6:	d4 f7       	brge	.-12     	; 0x24bc <print_date+0x4e>
    24c8:	1e 2d       	mov	r17, r14
    24ca:	f1 cf       	rjmp	.-30     	; 0x24ae <print_date+0x40>
		}
		/*int dayWidth = get_dayWidth();
		int monthWidth = get_monthWidth();
		int dateWidth = dayWidth + monthWidth + 6; //6=Punkt + Leerzeichen
		int xPosDate = (127 - dateWidth) / 2 + 1;*/
		int xPosDate = get_dateXPos();
    24cc:	0e 94 15 11 	call	0x222a	; 0x222a <get_dateXPos>
    24d0:	7c 01       	movw	r14, r24
		
		if ((yPos == POS_DATE_STD) && (day==14) && (month==1)){
    24d2:	8f e2       	ldi	r24, 0x2F	; 47
    24d4:	c8 16       	cp	r12, r24
    24d6:	d1 04       	cpc	r13, r1
    24d8:	09 f0       	breq	.+2      	; 0x24dc <print_date+0x6e>
    24da:	8a c0       	rjmp	.+276    	; 0x25f0 <print_date+0x182>
    24dc:	80 91 06 01 	lds	r24, 0x0106
    24e0:	90 91 07 01 	lds	r25, 0x0107
    24e4:	8e 30       	cpi	r24, 0x0E	; 14
    24e6:	91 05       	cpc	r25, r1
    24e8:	11 f5       	brne	.+68     	; 0x252e <print_date+0xc0>
    24ea:	80 91 04 01 	lds	r24, 0x0104
    24ee:	90 91 05 01 	lds	r25, 0x0105
    24f2:	01 97       	sbiw	r24, 0x01	; 1
    24f4:	09 f0       	breq	.+2      	; 0x24f8 <print_date+0x8a>
    24f6:	7c c0       	rjmp	.+248    	; 0x25f0 <print_date+0x182>
    24f8:	ed ee       	ldi	r30, 0xED	; 237
    24fa:	fd e0       	ldi	r31, 0x0D	; 13
    24fc:	de 01       	movw	r26, r28
    24fe:	11 96       	adiw	r26, 0x01	; 1
    2500:	ce 01       	movw	r24, r28
    2502:	85 5a       	subi	r24, 0xA5	; 165
    2504:	9f 4f       	sbci	r25, 0xFF	; 255
			uint8_t roseSymb[90];
			for(int i=0; i<90; i++){
				roseSymb[i] = pgm_read_byte(&rose[0][i]);
    2506:	24 91       	lpm	r18, Z
    2508:	2d 93       	st	X+, r18
    250a:	31 96       	adiw	r30, 0x01	; 1
		int xPosDate = (127 - dateWidth) / 2 + 1;*/
		int xPosDate = get_dateXPos();
		
		if ((yPos == POS_DATE_STD) && (day==14) && (month==1)){
			uint8_t roseSymb[90];
			for(int i=0; i<90; i++){
    250c:	a8 17       	cp	r26, r24
    250e:	b9 07       	cpc	r27, r25
    2510:	d1 f7       	brne	.-12     	; 0x2506 <print_date+0x98>
				roseSymb[i] = pgm_read_byte(&rose[0][i]);
			}
			print_symbol(16, 45, roseSymb, (127 - ROSE_WIDTH) / 2 + 1, POS_DATE_STD);
    2512:	0f e2       	ldi	r16, 0x2F	; 47
    2514:	10 e0       	ldi	r17, 0x00	; 0
    2516:	2a e2       	ldi	r18, 0x2A	; 42
    2518:	30 e0       	ldi	r19, 0x00	; 0
    251a:	ae 01       	movw	r20, r28
    251c:	4f 5f       	subi	r20, 0xFF	; 255
    251e:	5f 4f       	sbci	r21, 0xFF	; 255
    2520:	6d e2       	ldi	r22, 0x2D	; 45
    2522:	70 e0       	ldi	r23, 0x00	; 0
    2524:	80 e1       	ldi	r24, 0x10	; 16
    2526:	90 e0       	ldi	r25, 0x00	; 0
    2528:	0e 94 59 08 	call	0x10b2	; 0x10b2 <print_symbol>
		int monthWidth = get_monthWidth();
		int dateWidth = dayWidth + monthWidth + 6; //6=Punkt + Leerzeichen
		int xPosDate = (127 - dateWidth) / 2 + 1;*/
		int xPosDate = get_dateXPos();
		
		if ((yPos == POS_DATE_STD) && (day==14) && (month==1)){
    252c:	7f c0       	rjmp	.+254    	; 0x262c <print_date+0x1be>
			uint8_t roseSymb[90];
			for(int i=0; i<90; i++){
				roseSymb[i] = pgm_read_byte(&rose[0][i]);
			}
			print_symbol(16, 45, roseSymb, (127 - ROSE_WIDTH) / 2 + 1, POS_DATE_STD);
		} else if ((yPos == POS_DATE_STD) && (day==4) && (month==7)) {
    252e:	04 97       	sbiw	r24, 0x04	; 4
    2530:	09 f0       	breq	.+2      	; 0x2534 <print_date+0xc6>
    2532:	5e c0       	rjmp	.+188    	; 0x25f0 <print_date+0x182>
    2534:	80 91 04 01 	lds	r24, 0x0104
    2538:	90 91 05 01 	lds	r25, 0x0105
    253c:	07 97       	sbiw	r24, 0x07	; 7
    253e:	09 f0       	breq	.+2      	; 0x2542 <print_date+0xd4>
    2540:	57 c0       	rjmp	.+174    	; 0x25f0 <print_date+0x182>
			int spruch [11];
			convertString("Alles Liebe", spruch);
    2542:	be 01       	movw	r22, r28
    2544:	65 5a       	subi	r22, 0xA5	; 165
    2546:	7f 4f       	sbci	r23, 0xFF	; 255
    2548:	8c e0       	ldi	r24, 0x0C	; 12
    254a:	91 e0       	ldi	r25, 0x01	; 1
    254c:	0e 94 23 11 	call	0x2246	; 0x2246 <convertString>
			int xSpruch = (127 - get_stringWidth(spruch, 11)) / 2 + 1;
    2550:	6b e0       	ldi	r22, 0x0B	; 11
    2552:	70 e0       	ldi	r23, 0x00	; 0
    2554:	ce 01       	movw	r24, r28
    2556:	85 5a       	subi	r24, 0xA5	; 165
    2558:	9f 4f       	sbci	r25, 0xFF	; 255
    255a:	0e 94 6b 0f 	call	0x1ed6	; 0x1ed6 <get_stringWidth>
    255e:	2f e7       	ldi	r18, 0x7F	; 127
    2560:	30 e0       	ldi	r19, 0x00	; 0
    2562:	28 1b       	sub	r18, r24
    2564:	39 0b       	sbc	r19, r25
    2566:	c9 01       	movw	r24, r18
    2568:	99 23       	and	r25, r25
    256a:	0c f4       	brge	.+2      	; 0x256e <print_date+0x100>
    256c:	01 96       	adiw	r24, 0x01	; 1
    256e:	8c 01       	movw	r16, r24
    2570:	15 95       	asr	r17
    2572:	07 95       	ror	r16
    2574:	78 01       	movw	r14, r16
    2576:	8f ef       	ldi	r24, 0xFF	; 255
    2578:	e8 1a       	sub	r14, r24
    257a:	f8 0a       	sbc	r15, r24
			print_ASCIIString(xSpruch, POS_DATE_STD, spruch, 11);
    257c:	2b e0       	ldi	r18, 0x0B	; 11
    257e:	30 e0       	ldi	r19, 0x00	; 0
    2580:	ae 01       	movw	r20, r28
    2582:	45 5a       	subi	r20, 0xA5	; 165
    2584:	5f 4f       	sbci	r21, 0xFF	; 255
    2586:	6f e2       	ldi	r22, 0x2F	; 47
    2588:	70 e0       	ldi	r23, 0x00	; 0
    258a:	c7 01       	movw	r24, r14
    258c:	0e 94 2b 0d 	call	0x1a56	; 0x1a56 <print_ASCIIString>
    2590:	eb e5       	ldi	r30, 0x5B	; 91
    2592:	fe e0       	ldi	r31, 0x0E	; 14
    2594:	de 01       	movw	r26, r28
    2596:	11 96       	adiw	r26, 0x01	; 1
    2598:	ce 01       	movw	r24, r28
    259a:	81 96       	adiw	r24, 0x21	; 33
			uint8_t herzSymb[32];
			for(int i=0; i<32; i++){
				herzSymb[i] = pgm_read_byte(&herz[0][i]);
    259c:	24 91       	lpm	r18, Z
    259e:	2d 93       	st	X+, r18
    25a0:	31 96       	adiw	r30, 0x01	; 1
			int spruch [11];
			convertString("Alles Liebe", spruch);
			int xSpruch = (127 - get_stringWidth(spruch, 11)) / 2 + 1;
			print_ASCIIString(xSpruch, POS_DATE_STD, spruch, 11);
			uint8_t herzSymb[32];
			for(int i=0; i<32; i++){
    25a2:	a8 17       	cp	r26, r24
    25a4:	b9 07       	cpc	r27, r25
    25a6:	d1 f7       	brne	.-12     	; 0x259c <print_date+0x12e>
				herzSymb[i] = pgm_read_byte(&herz[0][i]);
			}
			print_symbol(16, 16, herzSymb, xSpruch - 16 - 4, POS_DATE_STD);
    25a8:	98 01       	movw	r18, r16
    25aa:	23 51       	subi	r18, 0x13	; 19
    25ac:	31 09       	sbc	r19, r1
    25ae:	0f e2       	ldi	r16, 0x2F	; 47
    25b0:	10 e0       	ldi	r17, 0x00	; 0
    25b2:	ae 01       	movw	r20, r28
    25b4:	4f 5f       	subi	r20, 0xFF	; 255
    25b6:	5f 4f       	sbci	r21, 0xFF	; 255
    25b8:	60 e1       	ldi	r22, 0x10	; 16
    25ba:	70 e0       	ldi	r23, 0x00	; 0
    25bc:	80 e1       	ldi	r24, 0x10	; 16
    25be:	90 e0       	ldi	r25, 0x00	; 0
    25c0:	0e 94 59 08 	call	0x10b2	; 0x10b2 <print_symbol>
			print_symbol(16, 16, herzSymb, xSpruch + get_stringWidth(spruch, 11) + 4, POS_DATE_STD);
    25c4:	6b e0       	ldi	r22, 0x0B	; 11
    25c6:	70 e0       	ldi	r23, 0x00	; 0
    25c8:	ce 01       	movw	r24, r28
    25ca:	85 5a       	subi	r24, 0xA5	; 165
    25cc:	9f 4f       	sbci	r25, 0xFF	; 255
    25ce:	0e 94 6b 0f 	call	0x1ed6	; 0x1ed6 <get_stringWidth>
    25d2:	8e 0d       	add	r24, r14
    25d4:	9f 1d       	adc	r25, r15
    25d6:	9c 01       	movw	r18, r24
    25d8:	2c 5f       	subi	r18, 0xFC	; 252
    25da:	3f 4f       	sbci	r19, 0xFF	; 255
    25dc:	ae 01       	movw	r20, r28
    25de:	4f 5f       	subi	r20, 0xFF	; 255
    25e0:	5f 4f       	sbci	r21, 0xFF	; 255
    25e2:	60 e1       	ldi	r22, 0x10	; 16
    25e4:	70 e0       	ldi	r23, 0x00	; 0
    25e6:	80 e1       	ldi	r24, 0x10	; 16
    25e8:	90 e0       	ldi	r25, 0x00	; 0
    25ea:	0e 94 59 08 	call	0x10b2	; 0x10b2 <print_symbol>
			uint8_t roseSymb[90];
			for(int i=0; i<90; i++){
				roseSymb[i] = pgm_read_byte(&rose[0][i]);
			}
			print_symbol(16, 45, roseSymb, (127 - ROSE_WIDTH) / 2 + 1, POS_DATE_STD);
		} else if ((yPos == POS_DATE_STD) && (day==4) && (month==7)) {
    25ee:	1e c0       	rjmp	.+60     	; 0x262c <print_date+0x1be>
				herzSymb[i] = pgm_read_byte(&herz[0][i]);
			}
			print_symbol(16, 16, herzSymb, xSpruch - 16 - 4, POS_DATE_STD);
			print_symbol(16, 16, herzSymb, xSpruch + get_stringWidth(spruch, 11) + 4, POS_DATE_STD);
		} else {
			print_day(xPosDate, yPos);	//Tag
    25f0:	b6 01       	movw	r22, r12
    25f2:	c7 01       	movw	r24, r14
    25f4:	0e 94 f0 0f 	call	0x1fe0	; 0x1fe0 <print_day>
			print_letter(alphaHeight, pgm_read_byte(&alphaWidth[54]), 54, xPosDate + get_dayWidth() + 1, yPos); //Punkt
    25f8:	0e 94 b8 10 	call	0x2170	; 0x2170 <get_dayWidth>
    25fc:	e6 e9       	ldi	r30, 0x96	; 150
    25fe:	f1 e0       	ldi	r31, 0x01	; 1
    2600:	64 91       	lpm	r22, Z
    2602:	8e 0d       	add	r24, r14
    2604:	9f 1d       	adc	r25, r15
    2606:	9c 01       	movw	r18, r24
    2608:	2f 5f       	subi	r18, 0xFF	; 255
    260a:	3f 4f       	sbci	r19, 0xFF	; 255
    260c:	70 e0       	ldi	r23, 0x00	; 0
    260e:	86 01       	movw	r16, r12
    2610:	46 e3       	ldi	r20, 0x36	; 54
    2612:	50 e0       	ldi	r21, 0x00	; 0
    2614:	80 e1       	ldi	r24, 0x10	; 16
    2616:	90 e0       	ldi	r25, 0x00	; 0
    2618:	0e 94 ed 08 	call	0x11da	; 0x11da <print_letter>
			print_month(xPosDate + get_dayWidth() + 6, yPos); //Monat ..+6=Punkt+Leerzeichen
    261c:	0e 94 b8 10 	call	0x2170	; 0x2170 <get_dayWidth>
    2620:	8e 0d       	add	r24, r14
    2622:	9f 1d       	adc	r25, r15
    2624:	b6 01       	movw	r22, r12
    2626:	06 96       	adiw	r24, 0x06	; 6
    2628:	0e 94 89 0f 	call	0x1f12	; 0x1f12 <print_month>
		}
	}
    262c:	c0 59       	subi	r28, 0x90	; 144
    262e:	df 4f       	sbci	r29, 0xFF	; 255
    2630:	0f b6       	in	r0, 0x3f	; 63
    2632:	f8 94       	cli
    2634:	de bf       	out	0x3e, r29	; 62
    2636:	0f be       	out	0x3f, r0	; 63
    2638:	cd bf       	out	0x3d, r28	; 61
    263a:	df 91       	pop	r29
    263c:	cf 91       	pop	r28
    263e:	1f 91       	pop	r17
    2640:	0f 91       	pop	r16
    2642:	ff 90       	pop	r15
    2644:	ef 90       	pop	r14
    2646:	df 90       	pop	r13
    2648:	cf 90       	pop	r12
    264a:	bf 90       	pop	r11
    264c:	af 90       	pop	r10
    264e:	08 95       	ret

00002650 <print_stdDisplay>:
			}
		}
	}
	
	void print_stdDisplay(){
		clear_pixelMatrix();
    2650:	0e 94 6b 0d 	call	0x1ad6	; 0x1ad6 <clear_pixelMatrix>
		print_time(TIME_TYPE);
    2654:	80 e0       	ldi	r24, 0x00	; 0
    2656:	0e 94 3f 0f 	call	0x1e7e	; 0x1e7e <print_time>
		print_date(POS_DATE_STD);
    265a:	8f e2       	ldi	r24, 0x2F	; 47
    265c:	90 e0       	ldi	r25, 0x00	; 0
    265e:	0e 94 37 12 	call	0x246e	; 0x246e <print_date>
		if(alarm){
    2662:	80 91 72 01 	lds	r24, 0x0172
    2666:	81 11       	cpse	r24, r1
			print_alarmLogo();
    2668:	0e 94 ac 0d 	call	0x1b58	; 0x1b58 <print_alarmLogo>
		}
		update_LCD();
    266c:	0e 94 2a 08 	call	0x1054	; 0x1054 <update_LCD>
    2670:	08 95       	ret

00002672 <check_light>:
		alarm_hour = hour;
	
}

void check_light(){
	if(btn_light_pushed){
    2672:	80 91 6d 01 	lds	r24, 0x016D
    2676:	88 23       	and	r24, r24
    2678:	09 f4       	brne	.+2      	; 0x267c <check_light+0xa>
    267a:	64 c0       	rjmp	.+200    	; 0x2744 <check_light+0xd2>
		//Timer starten zum zhlen
		start_btnPress();
    267c:	0e 94 7c 0d 	call	0x1af8	; 0x1af8 <start_btnPress>
		//warten, solange Taste gedrckt ist
		while((PINB & (1<<PINB1)) && (btn_press_duration<BTN_PRESS_LONG)){_delay_ms(50);}//KANN DELAY WEGGELASSEN WERDEN?
    2680:	19 9b       	sbis	0x03, 1	; 3
    2682:	2b c0       	rjmp	.+86     	; 0x26da <check_light+0x68>
    2684:	20 e0       	ldi	r18, 0x00	; 0
    2686:	30 e0       	ldi	r19, 0x00	; 0
    2688:	40 ec       	ldi	r20, 0xC0	; 192
    268a:	5f e3       	ldi	r21, 0x3F	; 63
    268c:	60 91 69 01 	lds	r22, 0x0169
    2690:	70 91 6a 01 	lds	r23, 0x016A
    2694:	80 91 6b 01 	lds	r24, 0x016B
    2698:	90 91 6c 01 	lds	r25, 0x016C
    269c:	0e 94 f0 21 	call	0x43e0	; 0x43e0 <__cmpsf2>
    26a0:	88 23       	and	r24, r24
    26a2:	dc f4       	brge	.+54     	; 0x26da <check_light+0x68>
    26a4:	2f e7       	ldi	r18, 0x7F	; 127
    26a6:	88 e3       	ldi	r24, 0x38	; 56
    26a8:	91 e0       	ldi	r25, 0x01	; 1
    26aa:	21 50       	subi	r18, 0x01	; 1
    26ac:	80 40       	sbci	r24, 0x00	; 0
    26ae:	90 40       	sbci	r25, 0x00	; 0
    26b0:	e1 f7       	brne	.-8      	; 0x26aa <check_light+0x38>
    26b2:	00 c0       	rjmp	.+0      	; 0x26b4 <check_light+0x42>
    26b4:	00 00       	nop
    26b6:	19 9b       	sbis	0x03, 1	; 3
    26b8:	10 c0       	rjmp	.+32     	; 0x26da <check_light+0x68>
    26ba:	20 e0       	ldi	r18, 0x00	; 0
    26bc:	30 e0       	ldi	r19, 0x00	; 0
    26be:	40 ec       	ldi	r20, 0xC0	; 192
    26c0:	5f e3       	ldi	r21, 0x3F	; 63
    26c2:	60 91 69 01 	lds	r22, 0x0169
    26c6:	70 91 6a 01 	lds	r23, 0x016A
    26ca:	80 91 6b 01 	lds	r24, 0x016B
    26ce:	90 91 6c 01 	lds	r25, 0x016C
    26d2:	0e 94 f0 21 	call	0x43e0	; 0x43e0 <__cmpsf2>
    26d6:	88 23       	and	r24, r24
    26d8:	2c f3       	brlt	.-54     	; 0x26a4 <check_light+0x32>
			TCNT0 = 0;
			TCCR0B = (1<<CS02);//Prescaler 256		
	}
	
	void stop_btnPress(){
		TCCR0B = 0; //TIMER0 aus
    26da:	15 bc       	out	0x25, r1	; 37
		//warten, solange Taste gedrckt ist
		while((PINB & (1<<PINB1)) && (btn_press_duration<BTN_PRESS_LONG)){_delay_ms(50);}//KANN DELAY WEGGELASSEN WERDEN?
		//Zeitmessung beenden
		stop_btnPress();
		//falls lnger als BTN_PRESS_LONG gedrckt wurde, Alarm toggeln
		if((btn_press_duration > BTN_PRESS_LONG) && (menuOpen==false)){
    26dc:	20 e0       	ldi	r18, 0x00	; 0
    26de:	30 e0       	ldi	r19, 0x00	; 0
    26e0:	40 ec       	ldi	r20, 0xC0	; 192
    26e2:	5f e3       	ldi	r21, 0x3F	; 63
    26e4:	60 91 69 01 	lds	r22, 0x0169
    26e8:	70 91 6a 01 	lds	r23, 0x016A
    26ec:	80 91 6b 01 	lds	r24, 0x016B
    26f0:	90 91 6c 01 	lds	r25, 0x016C
    26f4:	0e 94 6a 22 	call	0x44d4	; 0x44d4 <__gesf2>
    26f8:	18 16       	cp	r1, r24
    26fa:	6c f4       	brge	.+26     	; 0x2716 <check_light+0xa4>
    26fc:	80 91 71 01 	lds	r24, 0x0171
    2700:	81 11       	cpse	r24, r1
    2702:	09 c0       	rjmp	.+18     	; 0x2716 <check_light+0xa4>
			alarm = !alarm;
    2704:	90 91 72 01 	lds	r25, 0x0172
    2708:	81 e0       	ldi	r24, 0x01	; 1
    270a:	89 27       	eor	r24, r25
    270c:	80 93 72 01 	sts	0x0172, r24
			print_stdDisplay();
    2710:	0e 94 28 13 	call	0x2650	; 0x2650 <print_stdDisplay>
    2714:	13 c0       	rjmp	.+38     	; 0x273c <check_light+0xca>
		} else {//ansonsten Licht einschalten
			LCD_LED = 1;//Hintergrundbeleuchtung Display an
    2716:	45 9a       	sbi	0x08, 5	; 8
			LED_NORWAY = 1;//Beleuchtung Norwegen an
    2718:	2b 9a       	sbi	0x05, 3	; 5
			LED_AUSTRALIA = 1;//Beleuchtung Australien an
    271a:	2c 9a       	sbi	0x05, 4	; 5
			light_sec_off = (seconds + LIGHT_ON_DURATION)%60;
    271c:	80 91 80 01 	lds	r24, 0x0180
    2720:	90 91 81 01 	lds	r25, 0x0181
    2724:	03 96       	adiw	r24, 0x03	; 3
    2726:	6c e3       	ldi	r22, 0x3C	; 60
    2728:	70 e0       	ldi	r23, 0x00	; 0
    272a:	0e 94 6f 22 	call	0x44de	; 0x44de <__divmodhi4>
    272e:	90 93 d1 01 	sts	0x01D1, r25
    2732:	80 93 d0 01 	sts	0x01D0, r24
			light_status = ON;
    2736:	81 e0       	ldi	r24, 0x01	; 1
    2738:	80 93 62 01 	sts	0x0162, r24
		}
		cli();
    273c:	f8 94       	cli
		btn_light_pushed = false;//Flag zurcksetzen
    273e:	10 92 6d 01 	sts	0x016D, r1
		sei();
    2742:	78 94       	sei
    2744:	08 95       	ret

00002746 <increment_date>:
		update_LCD();
	}
	
	
	void increment_date() {
		day ++;
    2746:	80 91 06 01 	lds	r24, 0x0106
    274a:	90 91 07 01 	lds	r25, 0x0107
    274e:	01 96       	adiw	r24, 0x01	; 1
    2750:	90 93 07 01 	sts	0x0107, r25
    2754:	80 93 06 01 	sts	0x0106, r24
		if(day > daysThisMonth) {
    2758:	20 91 00 01 	lds	r18, 0x0100
    275c:	30 91 01 01 	lds	r19, 0x0101
    2760:	28 17       	cp	r18, r24
    2762:	39 07       	cpc	r19, r25
    2764:	4c f5       	brge	.+82     	; 0x27b8 <increment_date+0x72>
			day = 1;
    2766:	81 e0       	ldi	r24, 0x01	; 1
    2768:	90 e0       	ldi	r25, 0x00	; 0
    276a:	90 93 07 01 	sts	0x0107, r25
    276e:	80 93 06 01 	sts	0x0106, r24
			month++;
    2772:	e0 91 04 01 	lds	r30, 0x0104
    2776:	f0 91 05 01 	lds	r31, 0x0105
    277a:	31 96       	adiw	r30, 0x01	; 1
    277c:	f0 93 05 01 	sts	0x0105, r31
    2780:	e0 93 04 01 	sts	0x0104, r30
			if(month == 1 && ((year%4) == 0))
    2784:	e1 30       	cpi	r30, 0x01	; 1
    2786:	f1 05       	cpc	r31, r1
    2788:	79 f4       	brne	.+30     	; 0x27a8 <increment_date+0x62>
    278a:	80 91 02 01 	lds	r24, 0x0102
    278e:	90 91 03 01 	lds	r25, 0x0103
    2792:	83 70       	andi	r24, 0x03	; 3
    2794:	99 27       	eor	r25, r25
    2796:	89 2b       	or	r24, r25
    2798:	39 f4       	brne	.+14     	; 0x27a8 <increment_date+0x62>
			daysThisMonth = 29;
    279a:	8d e1       	ldi	r24, 0x1D	; 29
    279c:	90 e0       	ldi	r25, 0x00	; 0
    279e:	90 93 01 01 	sts	0x0101, r25
    27a2:	80 93 00 01 	sts	0x0100, r24
    27a6:	08 c0       	rjmp	.+16     	; 0x27b8 <increment_date+0x72>
			else
			daysThisMonth = pgm_read_byte(&daysPerMonth[month]);
    27a8:	e4 58       	subi	r30, 0x84	; 132
    27aa:	ff 4f       	sbci	r31, 0xFF	; 255
    27ac:	e4 91       	lpm	r30, Z
    27ae:	f0 e0       	ldi	r31, 0x00	; 0
    27b0:	f0 93 01 01 	sts	0x0101, r31
    27b4:	e0 93 00 01 	sts	0x0100, r30
		}
		if(month==12) {
    27b8:	80 91 04 01 	lds	r24, 0x0104
    27bc:	90 91 05 01 	lds	r25, 0x0105
    27c0:	0c 97       	sbiw	r24, 0x0c	; 12
    27c2:	69 f4       	brne	.+26     	; 0x27de <increment_date+0x98>
			month=0;
    27c4:	10 92 05 01 	sts	0x0105, r1
    27c8:	10 92 04 01 	sts	0x0104, r1
			year ++;
    27cc:	80 91 02 01 	lds	r24, 0x0102
    27d0:	90 91 03 01 	lds	r25, 0x0103
    27d4:	01 96       	adiw	r24, 0x01	; 1
    27d6:	90 93 03 01 	sts	0x0103, r25
    27da:	80 93 02 01 	sts	0x0102, r24
		}
		print_date(POS_DATE_STD);
    27de:	8f e2       	ldi	r24, 0x2F	; 47
    27e0:	90 e0       	ldi	r25, 0x00	; 0
    27e2:	0e 94 37 12 	call	0x246e	; 0x246e <print_date>
    27e6:	08 95       	ret

000027e8 <update_time>:
			snoozeSymb[i] = pgm_read_byte(&snooze[0][i]);
		}
		print_symbol(11,14, snoozeSymb,1,1);
	}
	
	void update_time() {
    27e8:	0f 93       	push	r16
    27ea:	1f 93       	push	r17
    27ec:	cf 93       	push	r28
    27ee:	df 93       	push	r29
		//update_timeXPos();//Alten Zeit lschen
		for(int x = timeXPos; x<128; x++) {
    27f0:	00 91 79 01 	lds	r16, 0x0179
    27f4:	10 91 7a 01 	lds	r17, 0x017A
    27f8:	00 38       	cpi	r16, 0x80	; 128
    27fa:	11 05       	cpc	r17, r1
    27fc:	74 f0       	brlt	.+28     	; 0x281a <update_time+0x32>
    27fe:	10 c0       	rjmp	.+32     	; 0x2820 <update_time+0x38>
			for(int y = timeYPos; y<timeYPos+BIG_NUMBER_HEIGHT; y++) {
				reset_pixel(x,y);
    2800:	6c 2f       	mov	r22, r28
    2802:	80 2f       	mov	r24, r16
    2804:	0e 94 06 08 	call	0x100c	; 0x100c <reset_pixel>
    2808:	cf 5f       	subi	r28, 0xFF	; 255
	}
	
	void update_time() {
		//update_timeXPos();//Alten Zeit lschen
		for(int x = timeXPos; x<128; x++) {
			for(int y = timeYPos; y<timeYPos+BIG_NUMBER_HEIGHT; y++) {
    280a:	c9 32       	cpi	r28, 0x29	; 41
    280c:	c9 f7       	brne	.-14     	; 0x2800 <update_time+0x18>
		print_symbol(11,14, snoozeSymb,1,1);
	}
	
	void update_time() {
		//update_timeXPos();//Alten Zeit lschen
		for(int x = timeXPos; x<128; x++) {
    280e:	0f 5f       	subi	r16, 0xFF	; 255
    2810:	1f 4f       	sbci	r17, 0xFF	; 255
    2812:	00 38       	cpi	r16, 0x80	; 128
    2814:	11 05       	cpc	r17, r1
    2816:	11 f4       	brne	.+4      	; 0x281c <update_time+0x34>
    2818:	03 c0       	rjmp	.+6      	; 0x2820 <update_time+0x38>
			snoozeSymb[i] = pgm_read_byte(&snooze[0][i]);
		}
		print_symbol(11,14, snoozeSymb,1,1);
	}
	
	void update_time() {
    281a:	d9 e0       	ldi	r29, 0x09	; 9
    281c:	cd 2f       	mov	r28, r29
    281e:	f0 cf       	rjmp	.-32     	; 0x2800 <update_time+0x18>
		for(int x = timeXPos; x<128; x++) {
			for(int y = timeYPos; y<timeYPos+BIG_NUMBER_HEIGHT; y++) {
				reset_pixel(x,y);
			}
		}
		minute += timeUpdate;
    2820:	20 91 77 01 	lds	r18, 0x0177
    2824:	30 91 78 01 	lds	r19, 0x0178
    2828:	80 91 82 01 	lds	r24, 0x0182
    282c:	90 91 83 01 	lds	r25, 0x0183
    2830:	82 0f       	add	r24, r18
    2832:	93 1f       	adc	r25, r19
    2834:	90 93 83 01 	sts	0x0183, r25
    2838:	80 93 82 01 	sts	0x0182, r24
		timeUpdate = 0;
    283c:	10 92 78 01 	sts	0x0178, r1
    2840:	10 92 77 01 	sts	0x0177, r1
		if(minute > 59) {
    2844:	8c 33       	cpi	r24, 0x3C	; 60
    2846:	91 05       	cpc	r25, r1
    2848:	8c f0       	brlt	.+34     	; 0x286c <update_time+0x84>
			minute = minute % 60;
    284a:	6c e3       	ldi	r22, 0x3C	; 60
    284c:	70 e0       	ldi	r23, 0x00	; 0
    284e:	0e 94 6f 22 	call	0x44de	; 0x44de <__divmodhi4>
    2852:	90 93 83 01 	sts	0x0183, r25
    2856:	80 93 82 01 	sts	0x0182, r24
			hour++;
    285a:	80 91 0a 01 	lds	r24, 0x010A
    285e:	90 91 0b 01 	lds	r25, 0x010B
    2862:	01 96       	adiw	r24, 0x01	; 1
    2864:	90 93 0b 01 	sts	0x010B, r25
    2868:	80 93 0a 01 	sts	0x010A, r24
		}
		if(hour > 23) {
    286c:	80 91 0a 01 	lds	r24, 0x010A
    2870:	90 91 0b 01 	lds	r25, 0x010B
    2874:	48 97       	sbiw	r24, 0x18	; 24
    2876:	34 f0       	brlt	.+12     	; 0x2884 <update_time+0x9c>
			hour = 0;
    2878:	10 92 0b 01 	sts	0x010B, r1
    287c:	10 92 0a 01 	sts	0x010A, r1
			increment_date();
    2880:	0e 94 a3 13 	call	0x2746	; 0x2746 <increment_date>
		}
		print_time(TIME_TYPE);
    2884:	80 e0       	ldi	r24, 0x00	; 0
    2886:	0e 94 3f 0f 	call	0x1e7e	; 0x1e7e <print_time>
		update_LCD();
    288a:	0e 94 2a 08 	call	0x1054	; 0x1054 <update_LCD>
	}
    288e:	df 91       	pop	r29
    2890:	cf 91       	pop	r28
    2892:	1f 91       	pop	r17
    2894:	0f 91       	pop	r16
    2896:	08 95       	ret

00002898 <goodNight>:
		print_smallNumber(60,40,(int)(string[3]-200)/10);
		print_smallNumber(70,40,(int)(string[3]-250));*/
	}
	
	void goodNight() {
		while((!btn_drehenc_pushed) && (rotary==0) && (!btn_light_pushed) && (timeUpdate==0)){ //nur aufwachen, wenn nicht "taster losgelassen" oder "sekunde weitergestellt (1-59s)" die Ursache ist
    2898:	80 91 6e 01 	lds	r24, 0x016E
    289c:	81 11       	cpse	r24, r1
    289e:	34 c0       	rjmp	.+104    	; 0x2908 <goodNight+0x70>
    28a0:	80 91 6f 01 	lds	r24, 0x016F
    28a4:	90 91 70 01 	lds	r25, 0x0170
    28a8:	89 2b       	or	r24, r25
    28aa:	71 f5       	brne	.+92     	; 0x2908 <goodNight+0x70>
    28ac:	80 91 6d 01 	lds	r24, 0x016D
    28b0:	81 11       	cpse	r24, r1
    28b2:	2a c0       	rjmp	.+84     	; 0x2908 <goodNight+0x70>
    28b4:	80 91 77 01 	lds	r24, 0x0177
    28b8:	90 91 78 01 	lds	r25, 0x0178
    28bc:	89 2b       	or	r24, r25
    28be:	21 f5       	brne	.+72     	; 0x2908 <goodNight+0x70>
			SMCR |= (1<<SE);//Sleep enable
			SMCR |= ((1<<SM1)|(1<<SM0));//Sleep mode: Power-Save mode
			OCR2A = 1;//Sichergehen, dass genug Zeit seit letztem Schlafen vergangen ist
    28c0:	a3 eb       	ldi	r26, 0xB3	; 179
    28c2:	b0 e0       	ldi	r27, 0x00	; 0
    28c4:	21 e0       	ldi	r18, 0x01	; 1
			while((ASSR & (1<<OCR2AUB)));//Warten bis Schreiben fertig, erst dann darf man schlafen 
    28c6:	e6 eb       	ldi	r30, 0xB6	; 182
    28c8:	f0 e0       	ldi	r31, 0x00	; 0
		print_smallNumber(70,40,(int)(string[3]-250));*/
	}
	
	void goodNight() {
		while((!btn_drehenc_pushed) && (rotary==0) && (!btn_light_pushed) && (timeUpdate==0)){ //nur aufwachen, wenn nicht "taster losgelassen" oder "sekunde weitergestellt (1-59s)" die Ursache ist
			SMCR |= (1<<SE);//Sleep enable
    28ca:	83 b7       	in	r24, 0x33	; 51
    28cc:	81 60       	ori	r24, 0x01	; 1
    28ce:	83 bf       	out	0x33, r24	; 51
			SMCR |= ((1<<SM1)|(1<<SM0));//Sleep mode: Power-Save mode
    28d0:	83 b7       	in	r24, 0x33	; 51
    28d2:	86 60       	ori	r24, 0x06	; 6
    28d4:	83 bf       	out	0x33, r24	; 51
			OCR2A = 1;//Sichergehen, dass genug Zeit seit letztem Schlafen vergangen ist
    28d6:	2c 93       	st	X, r18
			while((ASSR & (1<<OCR2AUB)));//Warten bis Schreiben fertig, erst dann darf man schlafen 
    28d8:	80 81       	ld	r24, Z
    28da:	83 fd       	sbrc	r24, 3
    28dc:	fd cf       	rjmp	.-6      	; 0x28d8 <goodNight+0x40>
			sleep_cpu();
    28de:	88 95       	sleep
		print_smallNumber(60,40,(int)(string[3]-200)/10);
		print_smallNumber(70,40,(int)(string[3]-250));*/
	}
	
	void goodNight() {
		while((!btn_drehenc_pushed) && (rotary==0) && (!btn_light_pushed) && (timeUpdate==0)){ //nur aufwachen, wenn nicht "taster losgelassen" oder "sekunde weitergestellt (1-59s)" die Ursache ist
    28e0:	80 91 6e 01 	lds	r24, 0x016E
    28e4:	81 11       	cpse	r24, r1
    28e6:	10 c0       	rjmp	.+32     	; 0x2908 <goodNight+0x70>
    28e8:	80 91 6f 01 	lds	r24, 0x016F
    28ec:	90 91 70 01 	lds	r25, 0x0170
    28f0:	89 2b       	or	r24, r25
    28f2:	51 f4       	brne	.+20     	; 0x2908 <goodNight+0x70>
    28f4:	80 91 6d 01 	lds	r24, 0x016D
    28f8:	81 11       	cpse	r24, r1
    28fa:	06 c0       	rjmp	.+12     	; 0x2908 <goodNight+0x70>
    28fc:	80 91 77 01 	lds	r24, 0x0177
    2900:	90 91 78 01 	lds	r25, 0x0178
    2904:	89 2b       	or	r24, r25
    2906:	09 f3       	breq	.-62     	; 0x28ca <goodNight+0x32>
    2908:	08 95       	ret

0000290a <wakeUp_User>:
	PCMSK2 = (1<<PCINT21);//Interrupt bei Pinnderung durch Drehung Drehencoder
	//PCMSK2 |=(1<<PCINT22);
}

void wakeUp_User(){
	mute_on();//Verstrker muten, damit kein Knack beim Einschalten entsteht
    290a:	0e 94 ce 0a 	call	0x159c	; 0x159c <mute_on>
	mp3Player_onoff();
    290e:	0e 94 f0 0a 	call	0x15e0	; 0x15e0 <mp3Player_onoff>
	if(snoozeCounter == 0){
    2912:	80 91 7b 01 	lds	r24, 0x017B
    2916:	81 11       	cpse	r24, r1
    2918:	02 c0       	rjmp	.+4      	; 0x291e <wakeUp_User+0x14>
		next_song();
    291a:	0e 94 09 0b 	call	0x1612	; 0x1612 <next_song>
	}
	play_pause();
    291e:	0e 94 22 0b 	call	0x1644	; 0x1644 <play_pause>
    2922:	2f ef       	ldi	r18, 0xFF	; 255
    2924:	89 e6       	ldi	r24, 0x69	; 105
    2926:	98 e1       	ldi	r25, 0x18	; 24
    2928:	21 50       	subi	r18, 0x01	; 1
    292a:	80 40       	sbci	r24, 0x00	; 0
    292c:	90 40       	sbci	r25, 0x00	; 0
    292e:	e1 f7       	brne	.-8      	; 0x2928 <wakeUp_User+0x1e>
    2930:	00 c0       	rjmp	.+0      	; 0x2932 <wakeUp_User+0x28>
    2932:	00 00       	nop
	_delay_ms(1000);//warten bis mp3Player an ist
	boot_amp();
    2934:	0e 94 d2 0a 	call	0x15a4	; 0x15a4 <boot_amp>

	bool user_awake = false;
	
	while((!btn_light_pushed) && (rotary == 0) && (!btn_drehenc_pushed)){//Knnte auch von Sekundenzhler aufgewacht sein
    2938:	80 91 6d 01 	lds	r24, 0x016D
    293c:	81 11       	cpse	r24, r1
    293e:	1e c0       	rjmp	.+60     	; 0x297c <wakeUp_User+0x72>
    2940:	80 91 6f 01 	lds	r24, 0x016F
    2944:	90 91 70 01 	lds	r25, 0x0170
    2948:	89 2b       	or	r24, r25
    294a:	c1 f4       	brne	.+48     	; 0x297c <wakeUp_User+0x72>
    294c:	80 91 6e 01 	lds	r24, 0x016E
    2950:	81 11       	cpse	r24, r1
    2952:	14 c0       	rjmp	.+40     	; 0x297c <wakeUp_User+0x72>
		goodNight();
    2954:	0e 94 4c 14 	call	0x2898	; 0x2898 <goodNight>
		if(check_TimeUpdate());
    2958:	0e 94 88 0d 	call	0x1b10	; 0x1b10 <check_TimeUpdate>
			update_time();
    295c:	0e 94 f4 13 	call	0x27e8	; 0x27e8 <update_time>
	_delay_ms(1000);//warten bis mp3Player an ist
	boot_amp();

	bool user_awake = false;
	
	while((!btn_light_pushed) && (rotary == 0) && (!btn_drehenc_pushed)){//Knnte auch von Sekundenzhler aufgewacht sein
    2960:	80 91 6d 01 	lds	r24, 0x016D
    2964:	81 11       	cpse	r24, r1
    2966:	0a c0       	rjmp	.+20     	; 0x297c <wakeUp_User+0x72>
    2968:	80 91 6f 01 	lds	r24, 0x016F
    296c:	90 91 70 01 	lds	r25, 0x0170
    2970:	89 2b       	or	r24, r25
    2972:	21 f4       	brne	.+8      	; 0x297c <wakeUp_User+0x72>
    2974:	80 91 6e 01 	lds	r24, 0x016E
    2978:	88 23       	and	r24, r24
    297a:	61 f3       	breq	.-40     	; 0x2954 <wakeUp_User+0x4a>
		goodNight();
		if(check_TimeUpdate());
			update_time();
	}
	
	if(snoozeCounter==0){
    297c:	80 91 7b 01 	lds	r24, 0x017B
    2980:	81 11       	cpse	r24, r1
    2982:	5a c0       	rjmp	.+180    	; 0x2a38 <wakeUp_User+0x12e>
		if(btn_light_pushed){
    2984:	80 91 6d 01 	lds	r24, 0x016D
    2988:	88 23       	and	r24, r24
    298a:	09 f4       	brne	.+2      	; 0x298e <wakeUp_User+0x84>
    298c:	4b c0       	rjmp	.+150    	; 0x2a24 <wakeUp_User+0x11a>
			//while(!btn_light_pushed){_delay_ms(100);}
			start_btnPress();
    298e:	0e 94 7c 0d 	call	0x1af8	; 0x1af8 <start_btnPress>
			while((PINB & (1<<PINB1)) && (btn_press_duration<BTN_PRESS_LONG)){_delay_ms(50);}
    2992:	19 9b       	sbis	0x03, 1	; 3
    2994:	2b c0       	rjmp	.+86     	; 0x29ec <wakeUp_User+0xe2>
    2996:	20 e0       	ldi	r18, 0x00	; 0
    2998:	30 e0       	ldi	r19, 0x00	; 0
    299a:	40 ec       	ldi	r20, 0xC0	; 192
    299c:	5f e3       	ldi	r21, 0x3F	; 63
    299e:	60 91 69 01 	lds	r22, 0x0169
    29a2:	70 91 6a 01 	lds	r23, 0x016A
    29a6:	80 91 6b 01 	lds	r24, 0x016B
    29aa:	90 91 6c 01 	lds	r25, 0x016C
    29ae:	0e 94 f0 21 	call	0x43e0	; 0x43e0 <__cmpsf2>
    29b2:	88 23       	and	r24, r24
    29b4:	dc f4       	brge	.+54     	; 0x29ec <wakeUp_User+0xe2>
    29b6:	2f e7       	ldi	r18, 0x7F	; 127
    29b8:	88 e3       	ldi	r24, 0x38	; 56
    29ba:	91 e0       	ldi	r25, 0x01	; 1
    29bc:	21 50       	subi	r18, 0x01	; 1
    29be:	80 40       	sbci	r24, 0x00	; 0
    29c0:	90 40       	sbci	r25, 0x00	; 0
    29c2:	e1 f7       	brne	.-8      	; 0x29bc <wakeUp_User+0xb2>
    29c4:	00 c0       	rjmp	.+0      	; 0x29c6 <wakeUp_User+0xbc>
    29c6:	00 00       	nop
    29c8:	19 9b       	sbis	0x03, 1	; 3
    29ca:	10 c0       	rjmp	.+32     	; 0x29ec <wakeUp_User+0xe2>
    29cc:	20 e0       	ldi	r18, 0x00	; 0
    29ce:	30 e0       	ldi	r19, 0x00	; 0
    29d0:	40 ec       	ldi	r20, 0xC0	; 192
    29d2:	5f e3       	ldi	r21, 0x3F	; 63
    29d4:	60 91 69 01 	lds	r22, 0x0169
    29d8:	70 91 6a 01 	lds	r23, 0x016A
    29dc:	80 91 6b 01 	lds	r24, 0x016B
    29e0:	90 91 6c 01 	lds	r25, 0x016C
    29e4:	0e 94 f0 21 	call	0x43e0	; 0x43e0 <__cmpsf2>
    29e8:	88 23       	and	r24, r24
    29ea:	2c f3       	brlt	.-54     	; 0x29b6 <wakeUp_User+0xac>
			TCNT0 = 0;
			TCCR0B = (1<<CS02);//Prescaler 256		
	}
	
	void stop_btnPress(){
		TCCR0B = 0; //TIMER0 aus
    29ec:	15 bc       	out	0x25, r1	; 37
		if(btn_light_pushed){
			//while(!btn_light_pushed){_delay_ms(100);}
			start_btnPress();
			while((PINB & (1<<PINB1)) && (btn_press_duration<BTN_PRESS_LONG)){_delay_ms(50);}
			stop_btnPress();
			if(btn_press_duration>=BTN_PRESS_LONG){
    29ee:	20 e0       	ldi	r18, 0x00	; 0
    29f0:	30 e0       	ldi	r19, 0x00	; 0
    29f2:	40 ec       	ldi	r20, 0xC0	; 192
    29f4:	5f e3       	ldi	r21, 0x3F	; 63
    29f6:	60 91 69 01 	lds	r22, 0x0169
    29fa:	70 91 6a 01 	lds	r23, 0x016A
    29fe:	80 91 6b 01 	lds	r24, 0x016B
    2a02:	90 91 6c 01 	lds	r25, 0x016C
    2a06:	0e 94 6a 22 	call	0x44d4	; 0x44d4 <__gesf2>
    2a0a:	88 23       	and	r24, r24
    2a0c:	0c f0       	brlt	.+2      	; 0x2a10 <wakeUp_User+0x106>
    2a0e:	53 c0       	rjmp	.+166    	; 0x2ab6 <wakeUp_User+0x1ac>
				user_awake = true;
			} else {
				reset_alarmLogo();
    2a10:	0e 94 96 0d 	call	0x1b2c	; 0x1b2c <reset_alarmLogo>
				print_snoozeLogo();
    2a14:	0e 94 f5 0d 	call	0x1bea	; 0x1bea <print_snoozeLogo>
				snooze_alarm();
    2a18:	0e 94 a6 0c 	call	0x194c	; 0x194c <snooze_alarm>
				snoozeCounter = 1;
    2a1c:	81 e0       	ldi	r24, 0x01	; 1
    2a1e:	80 93 7b 01 	sts	0x017B, r24
    2a22:	49 c0       	rjmp	.+146    	; 0x2ab6 <wakeUp_User+0x1ac>
			}
		} else {
			reset_alarmLogo();
    2a24:	0e 94 96 0d 	call	0x1b2c	; 0x1b2c <reset_alarmLogo>
			print_snoozeLogo();
    2a28:	0e 94 f5 0d 	call	0x1bea	; 0x1bea <print_snoozeLogo>
			snooze_alarm();
    2a2c:	0e 94 a6 0c 	call	0x194c	; 0x194c <snooze_alarm>
			snoozeCounter = 1;
    2a30:	81 e0       	ldi	r24, 0x01	; 1
    2a32:	80 93 7b 01 	sts	0x017B, r24
    2a36:	3f c0       	rjmp	.+126    	; 0x2ab6 <wakeUp_User+0x1ac>
		}
	} else {
		while(!user_awake){
			goodNight();
    2a38:	0e 94 4c 14 	call	0x2898	; 0x2898 <goodNight>
			if(check_TimeUpdate())
    2a3c:	0e 94 88 0d 	call	0x1b10	; 0x1b10 <check_TimeUpdate>
    2a40:	81 11       	cpse	r24, r1
				update_time();
    2a42:	0e 94 f4 13 	call	0x27e8	; 0x27e8 <update_time>
			start_btnPress();
    2a46:	0e 94 7c 0d 	call	0x1af8	; 0x1af8 <start_btnPress>
			while((PINB & (1<<PINB1)) && (btn_press_duration<BTN_PRESS_LONG)){_delay_ms(50);}
    2a4a:	19 9b       	sbis	0x03, 1	; 3
    2a4c:	3b c0       	rjmp	.+118    	; 0x2ac4 <wakeUp_User+0x1ba>
    2a4e:	20 e0       	ldi	r18, 0x00	; 0
    2a50:	30 e0       	ldi	r19, 0x00	; 0
    2a52:	40 ec       	ldi	r20, 0xC0	; 192
    2a54:	5f e3       	ldi	r21, 0x3F	; 63
    2a56:	60 91 69 01 	lds	r22, 0x0169
    2a5a:	70 91 6a 01 	lds	r23, 0x016A
    2a5e:	80 91 6b 01 	lds	r24, 0x016B
    2a62:	90 91 6c 01 	lds	r25, 0x016C
    2a66:	0e 94 f0 21 	call	0x43e0	; 0x43e0 <__cmpsf2>
    2a6a:	88 23       	and	r24, r24
    2a6c:	5c f5       	brge	.+86     	; 0x2ac4 <wakeUp_User+0x1ba>
    2a6e:	2f e7       	ldi	r18, 0x7F	; 127
    2a70:	88 e3       	ldi	r24, 0x38	; 56
    2a72:	91 e0       	ldi	r25, 0x01	; 1
    2a74:	21 50       	subi	r18, 0x01	; 1
    2a76:	80 40       	sbci	r24, 0x00	; 0
    2a78:	90 40       	sbci	r25, 0x00	; 0
    2a7a:	e1 f7       	brne	.-8      	; 0x2a74 <wakeUp_User+0x16a>
    2a7c:	00 c0       	rjmp	.+0      	; 0x2a7e <wakeUp_User+0x174>
    2a7e:	00 00       	nop
    2a80:	19 9b       	sbis	0x03, 1	; 3
    2a82:	20 c0       	rjmp	.+64     	; 0x2ac4 <wakeUp_User+0x1ba>
    2a84:	20 e0       	ldi	r18, 0x00	; 0
    2a86:	30 e0       	ldi	r19, 0x00	; 0
    2a88:	40 ec       	ldi	r20, 0xC0	; 192
    2a8a:	5f e3       	ldi	r21, 0x3F	; 63
    2a8c:	60 91 69 01 	lds	r22, 0x0169
    2a90:	70 91 6a 01 	lds	r23, 0x016A
    2a94:	80 91 6b 01 	lds	r24, 0x016B
    2a98:	90 91 6c 01 	lds	r25, 0x016C
    2a9c:	0e 94 f0 21 	call	0x43e0	; 0x43e0 <__cmpsf2>
    2aa0:	88 23       	and	r24, r24
    2aa2:	2c f3       	brlt	.-54     	; 0x2a6e <wakeUp_User+0x164>
    2aa4:	0f c0       	rjmp	.+30     	; 0x2ac4 <wakeUp_User+0x1ba>
			stop_btnPress();
			if(btn_press_duration>=BTN_PRESS_LONG){
				user_awake = true;
				alarm = OFF;
    2aa6:	10 92 72 01 	sts	0x0172, r1
				reset_alarmLogo();
    2aaa:	0e 94 96 0d 	call	0x1b2c	; 0x1b2c <reset_alarmLogo>
				reset_snoozeLogo();
    2aae:	0e 94 df 0d 	call	0x1bbe	; 0x1bbe <reset_snoozeLogo>
				snoozeCounter = 0;
    2ab2:	10 92 7b 01 	sts	0x017B, r1
				
			}
		}
	}
	play_pause();//Pause
    2ab6:	0e 94 22 0b 	call	0x1644	; 0x1644 <play_pause>
	shutdown_amp();
    2aba:	0e 94 e2 0a 	call	0x15c4	; 0x15c4 <shutdown_amp>
	mp3Player_onoff();
    2abe:	0e 94 f0 0a 	call	0x15e0	; 0x15e0 <mp3Player_onoff>
    2ac2:	08 95       	ret
			TCNT0 = 0;
			TCCR0B = (1<<CS02);//Prescaler 256		
	}
	
	void stop_btnPress(){
		TCCR0B = 0; //TIMER0 aus
    2ac4:	15 bc       	out	0x25, r1	; 37
			if(check_TimeUpdate())
				update_time();
			start_btnPress();
			while((PINB & (1<<PINB1)) && (btn_press_duration<BTN_PRESS_LONG)){_delay_ms(50);}
			stop_btnPress();
			if(btn_press_duration>=BTN_PRESS_LONG){
    2ac6:	20 e0       	ldi	r18, 0x00	; 0
    2ac8:	30 e0       	ldi	r19, 0x00	; 0
    2aca:	40 ec       	ldi	r20, 0xC0	; 192
    2acc:	5f e3       	ldi	r21, 0x3F	; 63
    2ace:	60 91 69 01 	lds	r22, 0x0169
    2ad2:	70 91 6a 01 	lds	r23, 0x016A
    2ad6:	80 91 6b 01 	lds	r24, 0x016B
    2ada:	90 91 6c 01 	lds	r25, 0x016C
    2ade:	0e 94 6a 22 	call	0x44d4	; 0x44d4 <__gesf2>
    2ae2:	88 23       	and	r24, r24
    2ae4:	0c f4       	brge	.+2      	; 0x2ae8 <wakeUp_User+0x1de>
    2ae6:	a8 cf       	rjmp	.-176    	; 0x2a38 <wakeUp_User+0x12e>
    2ae8:	de cf       	rjmp	.-68     	; 0x2aa6 <wakeUp_User+0x19c>

00002aea <get_menuSelection>:
	//Haken
	print_symbol(16,17, hakenSymb,108,46);
}


int get_menuSelection(int numItems, int selectedItem){
    2aea:	ef 92       	push	r14
    2aec:	ff 92       	push	r15
    2aee:	0f 93       	push	r16
    2af0:	1f 93       	push	r17
    2af2:	cf 93       	push	r28
    2af4:	df 93       	push	r29
    2af6:	8c 01       	movw	r16, r24
    2af8:	eb 01       	movw	r28, r22
	print_menuSelection(selectedItem, numItems);
    2afa:	bc 01       	movw	r22, r24
    2afc:	ce 01       	movw	r24, r28
    2afe:	0e 94 f4 0c 	call	0x19e8	; 0x19e8 <print_menuSelection>
	update_LCD();
    2b02:	0e 94 2a 08 	call	0x1054	; 0x1054 <update_LCD>
	cli();
    2b06:	f8 94       	cli
	rotary = 0;
    2b08:	10 92 70 01 	sts	0x0170, r1
    2b0c:	10 92 6f 01 	sts	0x016F, r1
	btn_drehenc_pushed = false;
    2b10:	10 92 6e 01 	sts	0x016E, r1
	sei();
    2b14:	78 94       	sei
	while(!btn_drehenc_pushed){
    2b16:	80 91 6e 01 	lds	r24, 0x016E
    2b1a:	81 11       	cpse	r24, r1
    2b1c:	2c c0       	rjmp	.+88     	; 0x2b76 <get_menuSelection+0x8c>
		if(rotary != 0){
			cli();
			selectedItem += rotary;
			rotary = 0;
			sei();
			selectedItem = selectedItem % (numItems+1);
    2b1e:	78 01       	movw	r14, r16
    2b20:	8f ef       	ldi	r24, 0xFF	; 255
    2b22:	e8 1a       	sub	r14, r24
    2b24:	f8 0a       	sbc	r15, r24
	cli();
	rotary = 0;
	btn_drehenc_pushed = false;
	sei();
	while(!btn_drehenc_pushed){
		if(rotary != 0){
    2b26:	80 91 6f 01 	lds	r24, 0x016F
    2b2a:	90 91 70 01 	lds	r25, 0x0170
    2b2e:	89 2b       	or	r24, r25
    2b30:	d1 f0       	breq	.+52     	; 0x2b66 <get_menuSelection+0x7c>
			cli();
    2b32:	f8 94       	cli
			selectedItem += rotary;
    2b34:	80 91 6f 01 	lds	r24, 0x016F
    2b38:	90 91 70 01 	lds	r25, 0x0170
    2b3c:	8c 0f       	add	r24, r28
    2b3e:	9d 1f       	adc	r25, r29
			rotary = 0;
    2b40:	10 92 70 01 	sts	0x0170, r1
    2b44:	10 92 6f 01 	sts	0x016F, r1
			sei();
    2b48:	78 94       	sei
			selectedItem = selectedItem % (numItems+1);
    2b4a:	b7 01       	movw	r22, r14
    2b4c:	0e 94 6f 22 	call	0x44de	; 0x44de <__divmodhi4>
    2b50:	ec 01       	movw	r28, r24
			if(selectedItem < 0){
    2b52:	99 23       	and	r25, r25
    2b54:	14 f4       	brge	.+4      	; 0x2b5a <get_menuSelection+0x70>
				selectedItem += numItems+1;
    2b56:	ce 0d       	add	r28, r14
    2b58:	df 1d       	adc	r29, r15
			}
			print_menuSelection(selectedItem, numItems);
    2b5a:	b8 01       	movw	r22, r16
    2b5c:	ce 01       	movw	r24, r28
    2b5e:	0e 94 f4 0c 	call	0x19e8	; 0x19e8 <print_menuSelection>
			update_LCD();
    2b62:	0e 94 2a 08 	call	0x1054	; 0x1054 <update_LCD>
		}
		goodNight();
    2b66:	0e 94 4c 14 	call	0x2898	; 0x2898 <goodNight>
		check_light();
    2b6a:	0e 94 39 13 	call	0x2672	; 0x2672 <check_light>
	update_LCD();
	cli();
	rotary = 0;
	btn_drehenc_pushed = false;
	sei();
	while(!btn_drehenc_pushed){
    2b6e:	90 91 6e 01 	lds	r25, 0x016E
    2b72:	99 23       	and	r25, r25
    2b74:	c1 f2       	breq	.-80     	; 0x2b26 <get_menuSelection+0x3c>
			update_LCD();
		}
		goodNight();
		check_light();
	}
	cli();
    2b76:	f8 94       	cli
	btn_drehenc_pushed = false;
    2b78:	10 92 6e 01 	sts	0x016E, r1
	sei();
    2b7c:	78 94       	sei
	return selectedItem;
}
    2b7e:	ce 01       	movw	r24, r28
    2b80:	df 91       	pop	r29
    2b82:	cf 91       	pop	r28
    2b84:	1f 91       	pop	r17
    2b86:	0f 91       	pop	r16
    2b88:	ff 90       	pop	r15
    2b8a:	ef 90       	pop	r14
    2b8c:	08 95       	ret

00002b8e <set_timeParameter>:
void set_alarm(){
	set_time(ALARM_TYPE);
}


void set_timeParameter(int *timeParameter, int maxTime, bool timeType){ //timeParameter = {minute, hour, alarmMinute, alarmHour}
    2b8e:	bf 92       	push	r11
    2b90:	cf 92       	push	r12
    2b92:	df 92       	push	r13
    2b94:	ef 92       	push	r14
    2b96:	ff 92       	push	r15
    2b98:	0f 93       	push	r16
    2b9a:	1f 93       	push	r17
    2b9c:	cf 93       	push	r28
    2b9e:	df 93       	push	r29
	while(!btn_drehenc_pushed) {
    2ba0:	20 91 6e 01 	lds	r18, 0x016E
    2ba4:	21 11       	cpse	r18, r1
    2ba6:	b6 c0       	rjmp	.+364    	; 0x2d14 <set_timeParameter+0x186>
    2ba8:	b4 2e       	mov	r11, r20
    2baa:	6b 01       	movw	r12, r22
    2bac:	7c 01       	movw	r14, r24
void set_alarm(){
	set_time(ALARM_TYPE);
}


void set_timeParameter(int *timeParameter, int maxTime, bool timeType){ //timeParameter = {minute, hour, alarmMinute, alarmHour}
    2bae:	d0 e0       	ldi	r29, 0x00	; 0
	while(!btn_drehenc_pushed) {
		if(rotary!=0) {
    2bb0:	80 91 6f 01 	lds	r24, 0x016F
    2bb4:	90 91 70 01 	lds	r25, 0x0170
    2bb8:	89 2b       	or	r24, r25
    2bba:	09 f4       	brne	.+2      	; 0x2bbe <set_timeParameter+0x30>
    2bbc:	a2 c0       	rjmp	.+324    	; 0x2d02 <set_timeParameter+0x174>
			cli();
    2bbe:	f8 94       	cli
			*timeParameter += rotary;
    2bc0:	f7 01       	movw	r30, r14
    2bc2:	20 81       	ld	r18, Z
    2bc4:	31 81       	ldd	r19, Z+1	; 0x01
    2bc6:	80 91 6f 01 	lds	r24, 0x016F
    2bca:	90 91 70 01 	lds	r25, 0x0170
    2bce:	82 0f       	add	r24, r18
    2bd0:	93 1f       	adc	r25, r19
    2bd2:	91 83       	std	Z+1, r25	; 0x01
    2bd4:	80 83       	st	Z, r24
			rotary = 0;
    2bd6:	10 92 70 01 	sts	0x0170, r1
    2bda:	10 92 6f 01 	sts	0x016F, r1
			*timeParameter = *timeParameter % maxTime;
    2bde:	80 81       	ld	r24, Z
    2be0:	91 81       	ldd	r25, Z+1	; 0x01
    2be2:	b6 01       	movw	r22, r12
    2be4:	0e 94 6f 22 	call	0x44de	; 0x44de <__divmodhi4>
			if(*timeParameter<0){
    2be8:	99 23       	and	r25, r25
    2bea:	1c f0       	brlt	.+6      	; 0x2bf2 <set_timeParameter+0x64>
	while(!btn_drehenc_pushed) {
		if(rotary!=0) {
			cli();
			*timeParameter += rotary;
			rotary = 0;
			*timeParameter = *timeParameter % maxTime;
    2bec:	91 83       	std	Z+1, r25	; 0x01
    2bee:	80 83       	st	Z, r24
    2bf0:	05 c0       	rjmp	.+10     	; 0x2bfc <set_timeParameter+0x6e>
			if(*timeParameter<0){
				*timeParameter += maxTime;
    2bf2:	8c 0d       	add	r24, r12
    2bf4:	9d 1d       	adc	r25, r13
    2bf6:	f7 01       	movw	r30, r14
    2bf8:	91 83       	std	Z+1, r25	; 0x01
    2bfa:	80 83       	st	Z, r24
			}
			seconds = 0;
    2bfc:	10 92 81 01 	sts	0x0181, r1
    2c00:	10 92 80 01 	sts	0x0180, r1
			sei();
    2c04:	78 94       	sei
			for(int x = timeXPos; x < timeXPos + hourWidth + minuteWidth + 2*SPACE_TO_DOTS + TIMEDOT_WIDTH; x++){
    2c06:	00 91 79 01 	lds	r16, 0x0179
    2c0a:	10 91 7a 01 	lds	r17, 0x017A
    2c0e:	80 91 65 01 	lds	r24, 0x0165
    2c12:	90 91 66 01 	lds	r25, 0x0166
    2c16:	80 0f       	add	r24, r16
    2c18:	91 1f       	adc	r25, r17
    2c1a:	20 91 63 01 	lds	r18, 0x0163
    2c1e:	30 91 64 01 	lds	r19, 0x0164
    2c22:	82 0f       	add	r24, r18
    2c24:	93 1f       	adc	r25, r19
    2c26:	0d 96       	adiw	r24, 0x0d	; 13
    2c28:	08 17       	cp	r16, r24
    2c2a:	19 07       	cpc	r17, r25
    2c2c:	fc f0       	brlt	.+62     	; 0x2c6c <set_timeParameter+0xde>
    2c2e:	20 c0       	rjmp	.+64     	; 0x2c70 <set_timeParameter+0xe2>
				for(int y = 0; y < timeYPos + BIG_NUMBER_HEIGHT; y++)
					reset_pixel(x,y);
    2c30:	6c 2f       	mov	r22, r28
    2c32:	80 2f       	mov	r24, r16
    2c34:	0e 94 06 08 	call	0x100c	; 0x100c <reset_pixel>
    2c38:	cf 5f       	subi	r28, 0xFF	; 255
				*timeParameter += maxTime;
			}
			seconds = 0;
			sei();
			for(int x = timeXPos; x < timeXPos + hourWidth + minuteWidth + 2*SPACE_TO_DOTS + TIMEDOT_WIDTH; x++){
				for(int y = 0; y < timeYPos + BIG_NUMBER_HEIGHT; y++)
    2c3a:	c9 32       	cpi	r28, 0x29	; 41
    2c3c:	c9 f7       	brne	.-14     	; 0x2c30 <set_timeParameter+0xa2>
			if(*timeParameter<0){
				*timeParameter += maxTime;
			}
			seconds = 0;
			sei();
			for(int x = timeXPos; x < timeXPos + hourWidth + minuteWidth + 2*SPACE_TO_DOTS + TIMEDOT_WIDTH; x++){
    2c3e:	0f 5f       	subi	r16, 0xFF	; 255
    2c40:	1f 4f       	sbci	r17, 0xFF	; 255
    2c42:	20 91 79 01 	lds	r18, 0x0179
    2c46:	30 91 7a 01 	lds	r19, 0x017A
    2c4a:	80 91 65 01 	lds	r24, 0x0165
    2c4e:	90 91 66 01 	lds	r25, 0x0166
    2c52:	28 0f       	add	r18, r24
    2c54:	39 1f       	adc	r19, r25
    2c56:	40 91 63 01 	lds	r20, 0x0163
    2c5a:	50 91 64 01 	lds	r21, 0x0164
    2c5e:	24 0f       	add	r18, r20
    2c60:	35 1f       	adc	r19, r21
    2c62:	23 5f       	subi	r18, 0xF3	; 243
    2c64:	3f 4f       	sbci	r19, 0xFF	; 255
    2c66:	02 17       	cp	r16, r18
    2c68:	13 07       	cpc	r17, r19
    2c6a:	14 f4       	brge	.+4      	; 0x2c70 <set_timeParameter+0xe2>
void set_alarm(){
	set_time(ALARM_TYPE);
}


void set_timeParameter(int *timeParameter, int maxTime, bool timeType){ //timeParameter = {minute, hour, alarmMinute, alarmHour}
    2c6c:	cd 2f       	mov	r28, r29
    2c6e:	e0 cf       	rjmp	.-64     	; 0x2c30 <set_timeParameter+0xa2>
			sei();
			for(int x = timeXPos; x < timeXPos + hourWidth + minuteWidth + 2*SPACE_TO_DOTS + TIMEDOT_WIDTH; x++){
				for(int y = 0; y < timeYPos + BIG_NUMBER_HEIGHT; y++)
					reset_pixel(x,y);
			}
			print_time(timeType);
    2c70:	8b 2d       	mov	r24, r11
    2c72:	0e 94 3f 0f 	call	0x1e7e	; 0x1e7e <print_time>
			if(maxTime == 60)
    2c76:	fc e3       	ldi	r31, 0x3C	; 60
    2c78:	cf 16       	cp	r12, r31
    2c7a:	d1 04       	cpc	r13, r1
    2c7c:	21 f5       	brne	.+72     	; 0x2cc6 <set_timeParameter+0x138>
				print_symbol(8,HERZ_KLEIN_WIDTH,herzKleinOffenSymb,timeXPos+hourWidth + 2*SPACE_TO_DOTS + TIMEDOT_WIDTH + minuteWidth/2-4, 2);
    2c7e:	20 91 79 01 	lds	r18, 0x0179
    2c82:	30 91 7a 01 	lds	r19, 0x017A
    2c86:	80 91 65 01 	lds	r24, 0x0165
    2c8a:	90 91 66 01 	lds	r25, 0x0166
    2c8e:	28 0f       	add	r18, r24
    2c90:	39 1f       	adc	r19, r25
    2c92:	23 5f       	subi	r18, 0xF3	; 243
    2c94:	3f 4f       	sbci	r19, 0xFF	; 255
    2c96:	80 91 63 01 	lds	r24, 0x0163
    2c9a:	90 91 64 01 	lds	r25, 0x0164
    2c9e:	99 23       	and	r25, r25
    2ca0:	0c f4       	brge	.+2      	; 0x2ca4 <set_timeParameter+0x116>
    2ca2:	01 96       	adiw	r24, 0x01	; 1
    2ca4:	95 95       	asr	r25
    2ca6:	87 95       	ror	r24
    2ca8:	28 0f       	add	r18, r24
    2caa:	39 1f       	adc	r19, r25
    2cac:	24 50       	subi	r18, 0x04	; 4
    2cae:	31 09       	sbc	r19, r1
    2cb0:	02 e0       	ldi	r16, 0x02	; 2
    2cb2:	10 e0       	ldi	r17, 0x00	; 0
    2cb4:	46 ec       	ldi	r20, 0xC6	; 198
    2cb6:	51 e0       	ldi	r21, 0x01	; 1
    2cb8:	6a e0       	ldi	r22, 0x0A	; 10
    2cba:	70 e0       	ldi	r23, 0x00	; 0
    2cbc:	88 e0       	ldi	r24, 0x08	; 8
    2cbe:	90 e0       	ldi	r25, 0x00	; 0
    2cc0:	0e 94 59 08 	call	0x10b2	; 0x10b2 <print_symbol>
    2cc4:	1c c0       	rjmp	.+56     	; 0x2cfe <set_timeParameter+0x170>
			else
				print_symbol(8,HERZ_KLEIN_WIDTH,herzKleinOffenSymb,timeXPos+hourWidth/2-4, 2);
    2cc6:	20 91 65 01 	lds	r18, 0x0165
    2cca:	30 91 66 01 	lds	r19, 0x0166
    2cce:	33 23       	and	r19, r19
    2cd0:	14 f4       	brge	.+4      	; 0x2cd6 <set_timeParameter+0x148>
    2cd2:	2f 5f       	subi	r18, 0xFF	; 255
    2cd4:	3f 4f       	sbci	r19, 0xFF	; 255
    2cd6:	35 95       	asr	r19
    2cd8:	27 95       	ror	r18
    2cda:	80 91 79 01 	lds	r24, 0x0179
    2cde:	90 91 7a 01 	lds	r25, 0x017A
    2ce2:	28 0f       	add	r18, r24
    2ce4:	39 1f       	adc	r19, r25
    2ce6:	24 50       	subi	r18, 0x04	; 4
    2ce8:	31 09       	sbc	r19, r1
    2cea:	02 e0       	ldi	r16, 0x02	; 2
    2cec:	10 e0       	ldi	r17, 0x00	; 0
    2cee:	46 ec       	ldi	r20, 0xC6	; 198
    2cf0:	51 e0       	ldi	r21, 0x01	; 1
    2cf2:	6a e0       	ldi	r22, 0x0A	; 10
    2cf4:	70 e0       	ldi	r23, 0x00	; 0
    2cf6:	88 e0       	ldi	r24, 0x08	; 8
    2cf8:	90 e0       	ldi	r25, 0x00	; 0
    2cfa:	0e 94 59 08 	call	0x10b2	; 0x10b2 <print_symbol>
			update_LCD();
    2cfe:	0e 94 2a 08 	call	0x1054	; 0x1054 <update_LCD>
		}
		goodNight();
    2d02:	0e 94 4c 14 	call	0x2898	; 0x2898 <goodNight>
		check_light();
    2d06:	0e 94 39 13 	call	0x2672	; 0x2672 <check_light>
	set_time(ALARM_TYPE);
}


void set_timeParameter(int *timeParameter, int maxTime, bool timeType){ //timeParameter = {minute, hour, alarmMinute, alarmHour}
	while(!btn_drehenc_pushed) {
    2d0a:	80 91 6e 01 	lds	r24, 0x016E
    2d0e:	88 23       	and	r24, r24
    2d10:	09 f4       	brne	.+2      	; 0x2d14 <set_timeParameter+0x186>
    2d12:	4e cf       	rjmp	.-356    	; 0x2bb0 <set_timeParameter+0x22>
			update_LCD();
		}
		goodNight();
		check_light();
	}
	cli();
    2d14:	f8 94       	cli
	btn_drehenc_pushed = false;
    2d16:	10 92 6e 01 	sts	0x016E, r1
	sei();
    2d1a:	78 94       	sei
}
    2d1c:	df 91       	pop	r29
    2d1e:	cf 91       	pop	r28
    2d20:	1f 91       	pop	r17
    2d22:	0f 91       	pop	r16
    2d24:	ff 90       	pop	r15
    2d26:	ef 90       	pop	r14
    2d28:	df 90       	pop	r13
    2d2a:	cf 90       	pop	r12
    2d2c:	bf 90       	pop	r11
    2d2e:	08 95       	ret

00002d30 <set_time>:

void set_time(bool timeType){
    2d30:	4f 92       	push	r4
    2d32:	5f 92       	push	r5
    2d34:	6f 92       	push	r6
    2d36:	7f 92       	push	r7
    2d38:	8f 92       	push	r8
    2d3a:	9f 92       	push	r9
    2d3c:	af 92       	push	r10
    2d3e:	bf 92       	push	r11
    2d40:	cf 92       	push	r12
    2d42:	df 92       	push	r13
    2d44:	ef 92       	push	r14
    2d46:	ff 92       	push	r15
    2d48:	0f 93       	push	r16
    2d4a:	1f 93       	push	r17
    2d4c:	cf 93       	push	r28
    2d4e:	df 93       	push	r29
    2d50:	c8 2e       	mov	r12, r24
	int *hou = &hour;
	int *min = &minute;
	update_timeXPos(hour, minute);
    2d52:	60 91 82 01 	lds	r22, 0x0182
    2d56:	70 91 83 01 	lds	r23, 0x0183
    2d5a:	80 91 0a 01 	lds	r24, 0x010A
    2d5e:	90 91 0b 01 	lds	r25, 0x010B
    2d62:	0e 94 a6 0e 	call	0x1d4c	; 0x1d4c <update_timeXPos>
	if (timeType == ALARM_TYPE){
    2d66:	cc 20       	and	r12, r12
    2d68:	b9 f0       	breq	.+46     	; 0x2d98 <set_time+0x68>
		hou = &alarm_hour;
		min = &alarm_minute;
		update_timeXPos(alarm_hour, alarm_minute);
    2d6a:	60 91 7c 01 	lds	r22, 0x017C
    2d6e:	70 91 7d 01 	lds	r23, 0x017D
    2d72:	80 91 7e 01 	lds	r24, 0x017E
    2d76:	90 91 7f 01 	lds	r25, 0x017F
    2d7a:	0e 94 a6 0e 	call	0x1d4c	; 0x1d4c <update_timeXPos>
	int *hou = &hour;
	int *min = &minute;
	update_timeXPos(hour, minute);
	if (timeType == ALARM_TYPE){
		hou = &alarm_hour;
		min = &alarm_minute;
    2d7e:	0f 2e       	mov	r0, r31
    2d80:	fc e7       	ldi	r31, 0x7C	; 124
    2d82:	4f 2e       	mov	r4, r31
    2d84:	f1 e0       	ldi	r31, 0x01	; 1
    2d86:	5f 2e       	mov	r5, r31
    2d88:	f0 2d       	mov	r31, r0
void set_time(bool timeType){
	int *hou = &hour;
	int *min = &minute;
	update_timeXPos(hour, minute);
	if (timeType == ALARM_TYPE){
		hou = &alarm_hour;
    2d8a:	0f 2e       	mov	r0, r31
    2d8c:	fe e7       	ldi	r31, 0x7E	; 126
    2d8e:	6f 2e       	mov	r6, r31
    2d90:	f1 e0       	ldi	r31, 0x01	; 1
    2d92:	7f 2e       	mov	r7, r31
    2d94:	f0 2d       	mov	r31, r0
    2d96:	0c c0       	rjmp	.+24     	; 0x2db0 <set_time+0x80>
	sei();
}

void set_time(bool timeType){
	int *hou = &hour;
	int *min = &minute;
    2d98:	0f 2e       	mov	r0, r31
    2d9a:	f2 e8       	ldi	r31, 0x82	; 130
    2d9c:	4f 2e       	mov	r4, r31
    2d9e:	f1 e0       	ldi	r31, 0x01	; 1
    2da0:	5f 2e       	mov	r5, r31
    2da2:	f0 2d       	mov	r31, r0
	btn_drehenc_pushed = false;
	sei();
}

void set_time(bool timeType){
	int *hou = &hour;
    2da4:	0f 2e       	mov	r0, r31
    2da6:	fa e0       	ldi	r31, 0x0A	; 10
    2da8:	6f 2e       	mov	r6, r31
    2daa:	f1 e0       	ldi	r31, 0x01	; 1
    2dac:	7f 2e       	mov	r7, r31
    2dae:	f0 2d       	mov	r31, r0
		min = &alarm_minute;
		update_timeXPos(alarm_hour, alarm_minute);
	}
	int item = 0;
	int old_selectedItem = 1;
	cli();
    2db0:	f8 94       	cli
	btn_drehenc_pushed = false;
    2db2:	10 92 6e 01 	sts	0x016E, r1
	sei();
    2db6:	78 94       	sei
	clear_pixelMatrix();
    2db8:	0e 94 6b 0d 	call	0x1ad6	; 0x1ad6 <clear_pixelMatrix>
	print_time(timeType);
    2dbc:	8c 2d       	mov	r24, r12
    2dbe:	0e 94 3f 0f 	call	0x1e7e	; 0x1e7e <print_time>
	
	print_symbol(16,17, hakenSymb,108,46);
    2dc2:	0e e2       	ldi	r16, 0x2E	; 46
    2dc4:	10 e0       	ldi	r17, 0x00	; 0
    2dc6:	2c e6       	ldi	r18, 0x6C	; 108
    2dc8:	30 e0       	ldi	r19, 0x00	; 0
    2dca:	44 e8       	ldi	r20, 0x84	; 132
    2dcc:	51 e0       	ldi	r21, 0x01	; 1
    2dce:	61 e1       	ldi	r22, 0x11	; 17
    2dd0:	70 e0       	ldi	r23, 0x00	; 0
    2dd2:	80 e1       	ldi	r24, 0x10	; 16
    2dd4:	90 e0       	ldi	r25, 0x00	; 0
    2dd6:	0e 94 59 08 	call	0x10b2	; 0x10b2 <print_symbol>
	print_symbol(8,HERZ_KLEIN_WIDTH,herzKleinSymb,timeXPos+get_timeWidth(alarm_hour)/2-4, 2);
    2dda:	80 91 7e 01 	lds	r24, 0x017E
    2dde:	90 91 7f 01 	lds	r25, 0x017F
    2de2:	0e 94 95 0e 	call	0x1d2a	; 0x1d2a <get_timeWidth>
    2de6:	99 23       	and	r25, r25
    2de8:	0c f4       	brge	.+2      	; 0x2dec <set_time+0xbc>
    2dea:	01 96       	adiw	r24, 0x01	; 1
    2dec:	95 95       	asr	r25
    2dee:	87 95       	ror	r24
    2df0:	20 91 79 01 	lds	r18, 0x0179
    2df4:	30 91 7a 01 	lds	r19, 0x017A
    2df8:	82 0f       	add	r24, r18
    2dfa:	93 1f       	adc	r25, r19
    2dfc:	9c 01       	movw	r18, r24
    2dfe:	24 50       	subi	r18, 0x04	; 4
    2e00:	31 09       	sbc	r19, r1
    2e02:	02 e0       	ldi	r16, 0x02	; 2
    2e04:	10 e0       	ldi	r17, 0x00	; 0
    2e06:	42 ed       	ldi	r20, 0xD2	; 210
    2e08:	51 e0       	ldi	r21, 0x01	; 1
    2e0a:	6a e0       	ldi	r22, 0x0A	; 10
    2e0c:	70 e0       	ldi	r23, 0x00	; 0
    2e0e:	88 e0       	ldi	r24, 0x08	; 8
    2e10:	90 e0       	ldi	r25, 0x00	; 0
    2e12:	0e 94 59 08 	call	0x10b2	; 0x10b2 <print_symbol>
	update_LCD();
    2e16:	0e 94 2a 08 	call	0x1054	; 0x1054 <update_LCD>
		hou = &alarm_hour;
		min = &alarm_minute;
		update_timeXPos(alarm_hour, alarm_minute);
	}
	int item = 0;
	int old_selectedItem = 1;
    2e1a:	c1 e0       	ldi	r28, 0x01	; 1
    2e1c:	d0 e0       	ldi	r29, 0x00	; 0
	if (timeType == ALARM_TYPE){
		hou = &alarm_hour;
		min = &alarm_minute;
		update_timeXPos(alarm_hour, alarm_minute);
	}
	int item = 0;
    2e1e:	e1 2c       	mov	r14, r1
    2e20:	f1 2c       	mov	r15, r1
			if(rotary != 0){
				item += rotary;
				cli();
				rotary = 0;
				sei();
				item = item % 3;
    2e22:	0f 2e       	mov	r0, r31
    2e24:	f3 e0       	ldi	r31, 0x03	; 3
    2e26:	8f 2e       	mov	r8, r31
    2e28:	91 2c       	mov	r9, r1
    2e2a:	f0 2d       	mov	r31, r0
				if(item<0){
					item += 3;
				}
				
				switch (old_selectedItem){
    2e2c:	a1 2c       	mov	r10, r1
    2e2e:	ba 2c       	mov	r11, r10
void set_time(bool timeType){
	int *hou = &hour;
	int *min = &minute;
	update_timeXPos(hour, minute);
	if (timeType == ALARM_TYPE){
		hou = &alarm_hour;
    2e30:	68 94       	set
    2e32:	dd 24       	eor	r13, r13
    2e34:	d1 f8       	bld	r13, 1
    2e36:	69 c1       	rjmp	.+722    	; 0x310a <set_time+0x3da>
	print_symbol(16,17, hakenSymb,108,46);
	print_symbol(8,HERZ_KLEIN_WIDTH,herzKleinSymb,timeXPos+get_timeWidth(alarm_hour)/2-4, 2);
	update_LCD();
	while(item != 2){
		while(!btn_drehenc_pushed){
			if(rotary != 0){
    2e38:	80 91 6f 01 	lds	r24, 0x016F
    2e3c:	90 91 70 01 	lds	r25, 0x0170
    2e40:	00 97       	sbiw	r24, 0x00	; 0
    2e42:	09 f4       	brne	.+2      	; 0x2e46 <set_time+0x116>
    2e44:	9a c0       	rjmp	.+308    	; 0x2f7a <set_time+0x24a>
				item += rotary;
    2e46:	8e 0d       	add	r24, r14
    2e48:	9f 1d       	adc	r25, r15
				cli();
    2e4a:	f8 94       	cli
				rotary = 0;
    2e4c:	10 92 70 01 	sts	0x0170, r1
    2e50:	10 92 6f 01 	sts	0x016F, r1
				sei();
    2e54:	78 94       	sei
				item = item % 3;
    2e56:	b4 01       	movw	r22, r8
    2e58:	0e 94 6f 22 	call	0x44de	; 0x44de <__divmodhi4>
    2e5c:	7c 01       	movw	r14, r24
				if(item<0){
    2e5e:	99 23       	and	r25, r25
    2e60:	0c f0       	brlt	.+2      	; 0x2e64 <set_time+0x134>
    2e62:	58 c1       	rjmp	.+688    	; 0x3114 <set_time+0x3e4>
					item += 3;
    2e64:	23 e0       	ldi	r18, 0x03	; 3
    2e66:	e2 0e       	add	r14, r18
    2e68:	f1 1c       	adc	r15, r1
    2e6a:	54 c1       	rjmp	.+680    	; 0x3114 <set_time+0x3e4>
				}
				
				switch (old_selectedItem){
					case 0: for(int x = 0; x<128; x++){
								for(int y = 2; y<10; y++)
									reset_pixel(x,y);
    2e6c:	6c 2f       	mov	r22, r28
    2e6e:	8d 2f       	mov	r24, r29
    2e70:	0e 94 06 08 	call	0x100c	; 0x100c <reset_pixel>
    2e74:	cf 5f       	subi	r28, 0xFF	; 255
					item += 3;
				}
				
				switch (old_selectedItem){
					case 0: for(int x = 0; x<128; x++){
								for(int y = 2; y<10; y++)
    2e76:	ca 30       	cpi	r28, 0x0A	; 10
    2e78:	c9 f7       	brne	.-14     	; 0x2e6c <set_time+0x13c>
    2e7a:	df 5f       	subi	r29, 0xFF	; 255
				if(item<0){
					item += 3;
				}
				
				switch (old_selectedItem){
					case 0: for(int x = 0; x<128; x++){
    2e7c:	d0 38       	cpi	r29, 0x80	; 128
    2e7e:	11 f4       	brne	.+4      	; 0x2e84 <set_time+0x154>
    2e80:	1f c0       	rjmp	.+62     	; 0x2ec0 <set_time+0x190>
				item = item % 3;
				if(item<0){
					item += 3;
				}
				
				switch (old_selectedItem){
    2e82:	db 2d       	mov	r29, r11
void set_time(bool timeType){
	int *hou = &hour;
	int *min = &minute;
	update_timeXPos(hour, minute);
	if (timeType == ALARM_TYPE){
		hou = &alarm_hour;
    2e84:	cd 2d       	mov	r28, r13
    2e86:	f2 cf       	rjmp	.-28     	; 0x2e6c <set_time+0x13c>
								for(int y = 2; y<10; y++)
									reset_pixel(x,y);
							} break;
					case 1: for(int x = 0; x<128; x++){
								for(int y = 2; y<10; y++)
								reset_pixel(x,y);
    2e88:	6c 2f       	mov	r22, r28
    2e8a:	8d 2f       	mov	r24, r29
    2e8c:	0e 94 06 08 	call	0x100c	; 0x100c <reset_pixel>
    2e90:	cf 5f       	subi	r28, 0xFF	; 255
					case 0: for(int x = 0; x<128; x++){
								for(int y = 2; y<10; y++)
									reset_pixel(x,y);
							} break;
					case 1: for(int x = 0; x<128; x++){
								for(int y = 2; y<10; y++)
    2e92:	ca 30       	cpi	r28, 0x0A	; 10
    2e94:	c9 f7       	brne	.-14     	; 0x2e88 <set_time+0x158>
    2e96:	df 5f       	subi	r29, 0xFF	; 255
				switch (old_selectedItem){
					case 0: for(int x = 0; x<128; x++){
								for(int y = 2; y<10; y++)
									reset_pixel(x,y);
							} break;
					case 1: for(int x = 0; x<128; x++){
    2e98:	d0 38       	cpi	r29, 0x80	; 128
    2e9a:	11 f4       	brne	.+4      	; 0x2ea0 <set_time+0x170>
    2e9c:	11 c0       	rjmp	.+34     	; 0x2ec0 <set_time+0x190>
				item = item % 3;
				if(item<0){
					item += 3;
				}
				
				switch (old_selectedItem){
    2e9e:	db 2d       	mov	r29, r11
    2ea0:	cd 2d       	mov	r28, r13
    2ea2:	f2 cf       	rjmp	.-28     	; 0x2e88 <set_time+0x158>
								for(int y = 2; y<10; y++)
								reset_pixel(x,y);
							}break;
					case 2: for(int x = 92; x<102; x++){
								for(int y = 2+3*15+5; y<2+3*15+8+5; y++)
									reset_pixel(x,y);
    2ea4:	6c 2f       	mov	r22, r28
    2ea6:	8d 2f       	mov	r24, r29
    2ea8:	0e 94 06 08 	call	0x100c	; 0x100c <reset_pixel>
    2eac:	cf 5f       	subi	r28, 0xFF	; 255
					case 1: for(int x = 0; x<128; x++){
								for(int y = 2; y<10; y++)
								reset_pixel(x,y);
							}break;
					case 2: for(int x = 92; x<102; x++){
								for(int y = 2+3*15+5; y<2+3*15+8+5; y++)
    2eae:	cc 33       	cpi	r28, 0x3C	; 60
    2eb0:	c9 f7       	brne	.-14     	; 0x2ea4 <set_time+0x174>
    2eb2:	df 5f       	subi	r29, 0xFF	; 255
							} break;
					case 1: for(int x = 0; x<128; x++){
								for(int y = 2; y<10; y++)
								reset_pixel(x,y);
							}break;
					case 2: for(int x = 92; x<102; x++){
    2eb4:	d6 36       	cpi	r29, 0x66	; 102
    2eb6:	11 f4       	brne	.+4      	; 0x2ebc <set_time+0x18c>
    2eb8:	03 c0       	rjmp	.+6      	; 0x2ec0 <set_time+0x190>
				item = item % 3;
				if(item<0){
					item += 3;
				}
				
				switch (old_selectedItem){
    2eba:	dc e5       	ldi	r29, 0x5C	; 92
    2ebc:	c4 e3       	ldi	r28, 0x34	; 52
    2ebe:	f2 cf       	rjmp	.-28     	; 0x2ea4 <set_time+0x174>
					case 2: for(int x = 92; x<102; x++){
								for(int y = 2+3*15+5; y<2+3*15+8+5; y++)
									reset_pixel(x,y);
							}break;
				}
				switch (item) {
    2ec0:	81 e0       	ldi	r24, 0x01	; 1
    2ec2:	e8 16       	cp	r14, r24
    2ec4:	f1 04       	cpc	r15, r1
    2ec6:	31 f1       	breq	.+76     	; 0x2f14 <set_time+0x1e4>
    2ec8:	22 e0       	ldi	r18, 0x02	; 2
    2eca:	e2 16       	cp	r14, r18
    2ecc:	f1 04       	cpc	r15, r1
    2ece:	09 f4       	brne	.+2      	; 0x2ed2 <set_time+0x1a2>
    2ed0:	45 c0       	rjmp	.+138    	; 0x2f5c <set_time+0x22c>
    2ed2:	e1 14       	cp	r14, r1
    2ed4:	f1 04       	cpc	r15, r1
    2ed6:	09 f0       	breq	.+2      	; 0x2eda <set_time+0x1aa>
    2ed8:	4d c0       	rjmp	.+154    	; 0x2f74 <set_time+0x244>
					case 0: print_symbol(8,HERZ_KLEIN_WIDTH,herzKleinSymb,timeXPos+hourWidth/2-4, 2); break;
    2eda:	80 91 65 01 	lds	r24, 0x0165
    2ede:	90 91 66 01 	lds	r25, 0x0166
    2ee2:	99 23       	and	r25, r25
    2ee4:	0c f4       	brge	.+2      	; 0x2ee8 <set_time+0x1b8>
    2ee6:	01 96       	adiw	r24, 0x01	; 1
    2ee8:	95 95       	asr	r25
    2eea:	87 95       	ror	r24
    2eec:	20 91 79 01 	lds	r18, 0x0179
    2ef0:	30 91 7a 01 	lds	r19, 0x017A
    2ef4:	82 0f       	add	r24, r18
    2ef6:	93 1f       	adc	r25, r19
    2ef8:	9c 01       	movw	r18, r24
    2efa:	24 50       	subi	r18, 0x04	; 4
    2efc:	31 09       	sbc	r19, r1
    2efe:	02 e0       	ldi	r16, 0x02	; 2
    2f00:	10 e0       	ldi	r17, 0x00	; 0
    2f02:	42 ed       	ldi	r20, 0xD2	; 210
    2f04:	51 e0       	ldi	r21, 0x01	; 1
    2f06:	6a e0       	ldi	r22, 0x0A	; 10
    2f08:	70 e0       	ldi	r23, 0x00	; 0
    2f0a:	88 e0       	ldi	r24, 0x08	; 8
    2f0c:	90 e0       	ldi	r25, 0x00	; 0
    2f0e:	0e 94 59 08 	call	0x10b2	; 0x10b2 <print_symbol>
    2f12:	30 c0       	rjmp	.+96     	; 0x2f74 <set_time+0x244>
					case 1: print_symbol(8,HERZ_KLEIN_WIDTH,herzKleinSymb,timeXPos+hourWidth+2*SPACE_TO_DOTS+ TIMEDOT_WIDTH + minuteWidth/2-4, 2); break;
    2f14:	20 91 79 01 	lds	r18, 0x0179
    2f18:	30 91 7a 01 	lds	r19, 0x017A
    2f1c:	80 91 65 01 	lds	r24, 0x0165
    2f20:	90 91 66 01 	lds	r25, 0x0166
    2f24:	28 0f       	add	r18, r24
    2f26:	39 1f       	adc	r19, r25
    2f28:	23 5f       	subi	r18, 0xF3	; 243
    2f2a:	3f 4f       	sbci	r19, 0xFF	; 255
    2f2c:	80 91 63 01 	lds	r24, 0x0163
    2f30:	90 91 64 01 	lds	r25, 0x0164
    2f34:	99 23       	and	r25, r25
    2f36:	0c f4       	brge	.+2      	; 0x2f3a <set_time+0x20a>
    2f38:	01 96       	adiw	r24, 0x01	; 1
    2f3a:	95 95       	asr	r25
    2f3c:	87 95       	ror	r24
    2f3e:	28 0f       	add	r18, r24
    2f40:	39 1f       	adc	r19, r25
    2f42:	24 50       	subi	r18, 0x04	; 4
    2f44:	31 09       	sbc	r19, r1
    2f46:	02 e0       	ldi	r16, 0x02	; 2
    2f48:	10 e0       	ldi	r17, 0x00	; 0
    2f4a:	42 ed       	ldi	r20, 0xD2	; 210
    2f4c:	51 e0       	ldi	r21, 0x01	; 1
    2f4e:	6a e0       	ldi	r22, 0x0A	; 10
    2f50:	70 e0       	ldi	r23, 0x00	; 0
    2f52:	88 e0       	ldi	r24, 0x08	; 8
    2f54:	90 e0       	ldi	r25, 0x00	; 0
    2f56:	0e 94 59 08 	call	0x10b2	; 0x10b2 <print_symbol>
    2f5a:	0c c0       	rjmp	.+24     	; 0x2f74 <set_time+0x244>
					case 2: print_symbol(8,HERZ_KLEIN_WIDTH,herzKleinSymb, 92, 2+3*15+5);break;
    2f5c:	04 e3       	ldi	r16, 0x34	; 52
    2f5e:	10 e0       	ldi	r17, 0x00	; 0
    2f60:	2c e5       	ldi	r18, 0x5C	; 92
    2f62:	30 e0       	ldi	r19, 0x00	; 0
    2f64:	42 ed       	ldi	r20, 0xD2	; 210
    2f66:	51 e0       	ldi	r21, 0x01	; 1
    2f68:	6a e0       	ldi	r22, 0x0A	; 10
    2f6a:	70 e0       	ldi	r23, 0x00	; 0
    2f6c:	88 e0       	ldi	r24, 0x08	; 8
    2f6e:	90 e0       	ldi	r25, 0x00	; 0
    2f70:	0e 94 59 08 	call	0x10b2	; 0x10b2 <print_symbol>
				}
				old_selectedItem = item;
				update_LCD();
    2f74:	0e 94 2a 08 	call	0x1054	; 0x1054 <update_LCD>
    2f78:	e7 01       	movw	r28, r14
			}
			goodNight();
    2f7a:	0e 94 4c 14 	call	0x2898	; 0x2898 <goodNight>
			check_light();
    2f7e:	0e 94 39 13 	call	0x2672	; 0x2672 <check_light>
	
	print_symbol(16,17, hakenSymb,108,46);
	print_symbol(8,HERZ_KLEIN_WIDTH,herzKleinSymb,timeXPos+get_timeWidth(alarm_hour)/2-4, 2);
	update_LCD();
	while(item != 2){
		while(!btn_drehenc_pushed){
    2f82:	80 91 6e 01 	lds	r24, 0x016E
    2f86:	88 23       	and	r24, r24
    2f88:	09 f4       	brne	.+2      	; 0x2f8c <set_time+0x25c>
    2f8a:	56 cf       	rjmp	.-340    	; 0x2e38 <set_time+0x108>
				update_LCD();
			}
			goodNight();
			check_light();
		}
		cli();
    2f8c:	f8 94       	cli
		btn_drehenc_pushed = false;
    2f8e:	a0 92 6e 01 	sts	0x016E, r10
		sei();
    2f92:	78 94       	sei
		switch (item) {
    2f94:	81 e0       	ldi	r24, 0x01	; 1
    2f96:	e8 16       	cp	r14, r24
    2f98:	f1 04       	cpc	r15, r1
    2f9a:	09 f4       	brne	.+2      	; 0x2f9e <set_time+0x26e>
    2f9c:	4a c0       	rjmp	.+148    	; 0x3032 <set_time+0x302>
    2f9e:	22 e0       	ldi	r18, 0x02	; 2
    2fa0:	e2 16       	cp	r14, r18
    2fa2:	f1 04       	cpc	r15, r1
    2fa4:	09 f4       	brne	.+2      	; 0x2fa8 <set_time+0x278>
    2fa6:	94 c0       	rjmp	.+296    	; 0x30d0 <set_time+0x3a0>
    2fa8:	e1 14       	cp	r14, r1
    2faa:	f1 04       	cpc	r15, r1
    2fac:	09 f0       	breq	.+2      	; 0x2fb0 <set_time+0x280>
    2fae:	a7 c0       	rjmp	.+334    	; 0x30fe <set_time+0x3ce>
			case 0: {
				print_symbol(8,HERZ_KLEIN_WIDTH,herzKleinOffenSymb,timeXPos+hourWidth/2-4, 2); 
    2fb0:	80 91 65 01 	lds	r24, 0x0165
    2fb4:	90 91 66 01 	lds	r25, 0x0166
    2fb8:	99 23       	and	r25, r25
    2fba:	0c f4       	brge	.+2      	; 0x2fbe <set_time+0x28e>
    2fbc:	01 96       	adiw	r24, 0x01	; 1
    2fbe:	95 95       	asr	r25
    2fc0:	87 95       	ror	r24
    2fc2:	20 91 79 01 	lds	r18, 0x0179
    2fc6:	30 91 7a 01 	lds	r19, 0x017A
    2fca:	82 0f       	add	r24, r18
    2fcc:	93 1f       	adc	r25, r19
    2fce:	9c 01       	movw	r18, r24
    2fd0:	24 50       	subi	r18, 0x04	; 4
    2fd2:	31 09       	sbc	r19, r1
    2fd4:	02 e0       	ldi	r16, 0x02	; 2
    2fd6:	10 e0       	ldi	r17, 0x00	; 0
    2fd8:	46 ec       	ldi	r20, 0xC6	; 198
    2fda:	51 e0       	ldi	r21, 0x01	; 1
    2fdc:	6a e0       	ldi	r22, 0x0A	; 10
    2fde:	70 e0       	ldi	r23, 0x00	; 0
    2fe0:	88 e0       	ldi	r24, 0x08	; 8
    2fe2:	90 e0       	ldi	r25, 0x00	; 0
    2fe4:	0e 94 59 08 	call	0x10b2	; 0x10b2 <print_symbol>
				update_LCD(); 
    2fe8:	0e 94 2a 08 	call	0x1054	; 0x1054 <update_LCD>
				set_timeParameter(hou, 24, timeType); 
    2fec:	4c 2d       	mov	r20, r12
    2fee:	68 e1       	ldi	r22, 0x18	; 24
    2ff0:	70 e0       	ldi	r23, 0x00	; 0
    2ff2:	c3 01       	movw	r24, r6
    2ff4:	0e 94 c7 15 	call	0x2b8e	; 0x2b8e <set_timeParameter>
				print_symbol(8,HERZ_KLEIN_WIDTH,herzKleinSymb,timeXPos+hourWidth/2-4, 2);
    2ff8:	80 91 65 01 	lds	r24, 0x0165
    2ffc:	90 91 66 01 	lds	r25, 0x0166
    3000:	99 23       	and	r25, r25
    3002:	0c f4       	brge	.+2      	; 0x3006 <set_time+0x2d6>
    3004:	01 96       	adiw	r24, 0x01	; 1
    3006:	95 95       	asr	r25
    3008:	87 95       	ror	r24
    300a:	20 91 79 01 	lds	r18, 0x0179
    300e:	30 91 7a 01 	lds	r19, 0x017A
    3012:	82 0f       	add	r24, r18
    3014:	93 1f       	adc	r25, r19
    3016:	9c 01       	movw	r18, r24
    3018:	24 50       	subi	r18, 0x04	; 4
    301a:	31 09       	sbc	r19, r1
    301c:	02 e0       	ldi	r16, 0x02	; 2
    301e:	10 e0       	ldi	r17, 0x00	; 0
    3020:	42 ed       	ldi	r20, 0xD2	; 210
    3022:	51 e0       	ldi	r21, 0x01	; 1
    3024:	6a e0       	ldi	r22, 0x0A	; 10
    3026:	70 e0       	ldi	r23, 0x00	; 0
    3028:	88 e0       	ldi	r24, 0x08	; 8
    302a:	90 e0       	ldi	r25, 0x00	; 0
    302c:	0e 94 59 08 	call	0x10b2	; 0x10b2 <print_symbol>
				break;
    3030:	7d c0       	rjmp	.+250    	; 0x312c <set_time+0x3fc>
			}
			
			case 1: {
				print_symbol(8,HERZ_KLEIN_WIDTH,herzKleinOffenSymb,timeXPos+hourWidth+2*SPACE_TO_DOTS+ TIMEDOT_WIDTH + minuteWidth/2-4, 2); 
    3032:	20 91 79 01 	lds	r18, 0x0179
    3036:	30 91 7a 01 	lds	r19, 0x017A
    303a:	80 91 65 01 	lds	r24, 0x0165
    303e:	90 91 66 01 	lds	r25, 0x0166
    3042:	28 0f       	add	r18, r24
    3044:	39 1f       	adc	r19, r25
    3046:	23 5f       	subi	r18, 0xF3	; 243
    3048:	3f 4f       	sbci	r19, 0xFF	; 255
    304a:	80 91 63 01 	lds	r24, 0x0163
    304e:	90 91 64 01 	lds	r25, 0x0164
    3052:	99 23       	and	r25, r25
    3054:	0c f4       	brge	.+2      	; 0x3058 <set_time+0x328>
    3056:	01 96       	adiw	r24, 0x01	; 1
    3058:	95 95       	asr	r25
    305a:	87 95       	ror	r24
    305c:	28 0f       	add	r18, r24
    305e:	39 1f       	adc	r19, r25
    3060:	24 50       	subi	r18, 0x04	; 4
    3062:	31 09       	sbc	r19, r1
    3064:	02 e0       	ldi	r16, 0x02	; 2
    3066:	10 e0       	ldi	r17, 0x00	; 0
    3068:	46 ec       	ldi	r20, 0xC6	; 198
    306a:	51 e0       	ldi	r21, 0x01	; 1
    306c:	6a e0       	ldi	r22, 0x0A	; 10
    306e:	70 e0       	ldi	r23, 0x00	; 0
    3070:	88 e0       	ldi	r24, 0x08	; 8
    3072:	90 e0       	ldi	r25, 0x00	; 0
    3074:	0e 94 59 08 	call	0x10b2	; 0x10b2 <print_symbol>
				update_LCD(); 
    3078:	0e 94 2a 08 	call	0x1054	; 0x1054 <update_LCD>
				set_timeParameter(min, 60, timeType); 
    307c:	4c 2d       	mov	r20, r12
    307e:	6c e3       	ldi	r22, 0x3C	; 60
    3080:	70 e0       	ldi	r23, 0x00	; 0
    3082:	c2 01       	movw	r24, r4
    3084:	0e 94 c7 15 	call	0x2b8e	; 0x2b8e <set_timeParameter>
				print_symbol(8,HERZ_KLEIN_WIDTH,herzKleinSymb,timeXPos+hourWidth+2*SPACE_TO_DOTS+ TIMEDOT_WIDTH + minuteWidth/2-4, 2);
    3088:	20 91 79 01 	lds	r18, 0x0179
    308c:	30 91 7a 01 	lds	r19, 0x017A
    3090:	80 91 65 01 	lds	r24, 0x0165
    3094:	90 91 66 01 	lds	r25, 0x0166
    3098:	28 0f       	add	r18, r24
    309a:	39 1f       	adc	r19, r25
    309c:	23 5f       	subi	r18, 0xF3	; 243
    309e:	3f 4f       	sbci	r19, 0xFF	; 255
    30a0:	80 91 63 01 	lds	r24, 0x0163
    30a4:	90 91 64 01 	lds	r25, 0x0164
    30a8:	99 23       	and	r25, r25
    30aa:	0c f4       	brge	.+2      	; 0x30ae <set_time+0x37e>
    30ac:	01 96       	adiw	r24, 0x01	; 1
    30ae:	95 95       	asr	r25
    30b0:	87 95       	ror	r24
    30b2:	28 0f       	add	r18, r24
    30b4:	39 1f       	adc	r19, r25
    30b6:	24 50       	subi	r18, 0x04	; 4
    30b8:	31 09       	sbc	r19, r1
    30ba:	02 e0       	ldi	r16, 0x02	; 2
    30bc:	10 e0       	ldi	r17, 0x00	; 0
    30be:	42 ed       	ldi	r20, 0xD2	; 210
    30c0:	51 e0       	ldi	r21, 0x01	; 1
    30c2:	6a e0       	ldi	r22, 0x0A	; 10
    30c4:	70 e0       	ldi	r23, 0x00	; 0
    30c6:	88 e0       	ldi	r24, 0x08	; 8
    30c8:	90 e0       	ldi	r25, 0x00	; 0
    30ca:	0e 94 59 08 	call	0x10b2	; 0x10b2 <print_symbol>
				break;
    30ce:	2e c0       	rjmp	.+92     	; 0x312c <set_time+0x3fc>
			}
			case 2: {	seconds = 0;
    30d0:	10 92 81 01 	sts	0x0181, r1
    30d4:	10 92 80 01 	sts	0x0180, r1
						cli();
    30d8:	f8 94       	cli
						TCNT2 = 0;
    30da:	10 92 b2 00 	sts	0x00B2, r1
						timeAdvance = 0;
    30de:	10 92 73 01 	sts	0x0173, r1
    30e2:	10 92 74 01 	sts	0x0174, r1
    30e6:	10 92 75 01 	sts	0x0175, r1
    30ea:	10 92 76 01 	sts	0x0176, r1
						timeUpdate = 0;
    30ee:	10 92 78 01 	sts	0x0178, r1
    30f2:	10 92 77 01 	sts	0x0177, r1
						sei();
    30f6:	78 94       	sei
						break;
			}
		}
		update_LCD();
    30f8:	0e 94 2a 08 	call	0x1054	; 0x1054 <update_LCD>
    30fc:	1a c0       	rjmp	.+52     	; 0x3132 <set_time+0x402>
    30fe:	0e 94 2a 08 	call	0x1054	; 0x1054 <update_LCD>
	print_time(timeType);
	
	print_symbol(16,17, hakenSymb,108,46);
	print_symbol(8,HERZ_KLEIN_WIDTH,herzKleinSymb,timeXPos+get_timeWidth(alarm_hour)/2-4, 2);
	update_LCD();
	while(item != 2){
    3102:	82 e0       	ldi	r24, 0x02	; 2
    3104:	e8 16       	cp	r14, r24
    3106:	f1 04       	cpc	r15, r1
    3108:	a1 f0       	breq	.+40     	; 0x3132 <set_time+0x402>
		while(!btn_drehenc_pushed){
    310a:	80 91 6e 01 	lds	r24, 0x016E
    310e:	81 11       	cpse	r24, r1
    3110:	3d cf       	rjmp	.-390    	; 0x2f8c <set_time+0x25c>
    3112:	92 ce       	rjmp	.-732    	; 0x2e38 <set_time+0x108>
				item = item % 3;
				if(item<0){
					item += 3;
				}
				
				switch (old_selectedItem){
    3114:	c1 30       	cpi	r28, 0x01	; 1
    3116:	d1 05       	cpc	r29, r1
    3118:	09 f4       	brne	.+2      	; 0x311c <set_time+0x3ec>
    311a:	c1 ce       	rjmp	.-638    	; 0x2e9e <set_time+0x16e>
    311c:	c2 30       	cpi	r28, 0x02	; 2
    311e:	d1 05       	cpc	r29, r1
    3120:	09 f4       	brne	.+2      	; 0x3124 <set_time+0x3f4>
    3122:	cb ce       	rjmp	.-618    	; 0x2eba <set_time+0x18a>
    3124:	cd 2b       	or	r28, r29
    3126:	09 f0       	breq	.+2      	; 0x312a <set_time+0x3fa>
    3128:	cb ce       	rjmp	.-618    	; 0x2ec0 <set_time+0x190>
    312a:	ab ce       	rjmp	.-682    	; 0x2e82 <set_time+0x152>
						timeUpdate = 0;
						sei();
						break;
			}
		}
		update_LCD();
    312c:	0e 94 2a 08 	call	0x1054	; 0x1054 <update_LCD>
    3130:	ec cf       	rjmp	.-40     	; 0x310a <set_time+0x3da>
	}
}
    3132:	df 91       	pop	r29
    3134:	cf 91       	pop	r28
    3136:	1f 91       	pop	r17
    3138:	0f 91       	pop	r16
    313a:	ff 90       	pop	r15
    313c:	ef 90       	pop	r14
    313e:	df 90       	pop	r13
    3140:	cf 90       	pop	r12
    3142:	bf 90       	pop	r11
    3144:	af 90       	pop	r10
    3146:	9f 90       	pop	r9
    3148:	8f 90       	pop	r8
    314a:	7f 90       	pop	r7
    314c:	6f 90       	pop	r6
    314e:	5f 90       	pop	r5
    3150:	4f 90       	pop	r4
    3152:	08 95       	ret

00003154 <set_alarm>:
	}
}


void set_alarm(){
	set_time(ALARM_TYPE);
    3154:	81 e0       	ldi	r24, 0x01	; 1
    3156:	0e 94 98 16 	call	0x2d30	; 0x2d30 <set_time>
    315a:	08 95       	ret

0000315c <set_day>:
		}
		update_LCD();
	}
}

void set_day(){
    315c:	ef 92       	push	r14
    315e:	ff 92       	push	r15
    3160:	0f 93       	push	r16
    3162:	1f 93       	push	r17
    3164:	cf 93       	push	r28
    3166:	df 93       	push	r29
	cli();
    3168:	f8 94       	cli
	btn_drehenc_pushed = false;
    316a:	10 92 6e 01 	sts	0x016E, r1
	sei();
    316e:	78 94       	sei
	while(!btn_drehenc_pushed){
    3170:	80 91 6e 01 	lds	r24, 0x016E
    3174:	81 11       	cpse	r24, r1
    3176:	7c c0       	rjmp	.+248    	; 0x3270 <set_day+0x114>
		}
		update_LCD();
	}
}

void set_day(){
    3178:	e1 2c       	mov	r14, r1
    317a:	fe 2c       	mov	r15, r14
	cli();
	btn_drehenc_pushed = false;
	sei();
	while(!btn_drehenc_pushed){
		if(rotary != 0){
    317c:	80 91 6f 01 	lds	r24, 0x016F
    3180:	90 91 70 01 	lds	r25, 0x0170
    3184:	00 97       	sbiw	r24, 0x00	; 0
    3186:	09 f4       	brne	.+2      	; 0x318a <set_day+0x2e>
    3188:	67 c0       	rjmp	.+206    	; 0x3258 <set_day+0xfc>
			day += rotary;
    318a:	20 91 06 01 	lds	r18, 0x0106
    318e:	30 91 07 01 	lds	r19, 0x0107
    3192:	82 0f       	add	r24, r18
    3194:	93 1f       	adc	r25, r19
    3196:	90 93 07 01 	sts	0x0107, r25
    319a:	80 93 06 01 	sts	0x0106, r24
			cli();
    319e:	f8 94       	cli
			rotary = 0;
    31a0:	10 92 70 01 	sts	0x0170, r1
    31a4:	10 92 6f 01 	sts	0x016F, r1
			sei();
    31a8:	78 94       	sei
			if (day < 1) {
    31aa:	80 91 06 01 	lds	r24, 0x0106
    31ae:	90 91 07 01 	lds	r25, 0x0107
    31b2:	18 16       	cp	r1, r24
    31b4:	19 06       	cpc	r1, r25
    31b6:	6c f0       	brlt	.+26     	; 0x31d2 <set_day+0x76>
				day += pgm_read_byte(&daysPerMonth[month]);
    31b8:	e0 91 04 01 	lds	r30, 0x0104
    31bc:	f0 91 05 01 	lds	r31, 0x0105
    31c0:	e4 58       	subi	r30, 0x84	; 132
    31c2:	ff 4f       	sbci	r31, 0xFF	; 255
    31c4:	e4 91       	lpm	r30, Z
    31c6:	8e 0f       	add	r24, r30
    31c8:	91 1d       	adc	r25, r1
    31ca:	90 93 07 01 	sts	0x0107, r25
    31ce:	80 93 06 01 	sts	0x0106, r24
			}
			if (day > pgm_read_byte(&daysPerMonth[month])){
    31d2:	e0 91 04 01 	lds	r30, 0x0104
    31d6:	f0 91 05 01 	lds	r31, 0x0105
    31da:	e4 58       	subi	r30, 0x84	; 132
    31dc:	ff 4f       	sbci	r31, 0xFF	; 255
    31de:	24 91       	lpm	r18, Z
    31e0:	80 91 06 01 	lds	r24, 0x0106
    31e4:	90 91 07 01 	lds	r25, 0x0107
    31e8:	30 e0       	ldi	r19, 0x00	; 0
    31ea:	28 17       	cp	r18, r24
    31ec:	39 07       	cpc	r19, r25
    31ee:	0c f0       	brlt	.+2      	; 0x31f2 <set_day+0x96>
    31f0:	3d c0       	rjmp	.+122    	; 0x326c <set_day+0x110>
				day -= pgm_read_byte(&daysPerMonth[month]);
    31f2:	e4 91       	lpm	r30, Z
    31f4:	8e 1b       	sub	r24, r30
    31f6:	91 09       	sbc	r25, r1
    31f8:	90 93 07 01 	sts	0x0107, r25
    31fc:	80 93 06 01 	sts	0x0106, r24
    3200:	35 c0       	rjmp	.+106    	; 0x326c <set_day+0x110>
			}
			for(int x = 0; x<128; x++){
				for(int y = 0; y<10; y++)
				reset_pixel(x,y);
    3202:	6c 2f       	mov	r22, r28
    3204:	8d 2f       	mov	r24, r29
    3206:	0e 94 06 08 	call	0x100c	; 0x100c <reset_pixel>
    320a:	cf 5f       	subi	r28, 0xFF	; 255
			}
			if (day > pgm_read_byte(&daysPerMonth[month])){
				day -= pgm_read_byte(&daysPerMonth[month]);
			}
			for(int x = 0; x<128; x++){
				for(int y = 0; y<10; y++)
    320c:	ca 30       	cpi	r28, 0x0A	; 10
    320e:	c9 f7       	brne	.-14     	; 0x3202 <set_day+0xa6>
    3210:	df 5f       	subi	r29, 0xFF	; 255
				day += pgm_read_byte(&daysPerMonth[month]);
			}
			if (day > pgm_read_byte(&daysPerMonth[month])){
				day -= pgm_read_byte(&daysPerMonth[month]);
			}
			for(int x = 0; x<128; x++){
    3212:	d0 38       	cpi	r29, 0x80	; 128
    3214:	11 f0       	breq	.+4      	; 0x321a <set_day+0xbe>
		}
		update_LCD();
	}
}

void set_day(){
    3216:	cf 2d       	mov	r28, r15
    3218:	f4 cf       	rjmp	.-24     	; 0x3202 <set_day+0xa6>
			for(int x = 0; x<128; x++){
				for(int y = 0; y<10; y++)
				reset_pixel(x,y);
			}
			
			print_date(POS_DATE_SET);
    321a:	8c e0       	ldi	r24, 0x0C	; 12
    321c:	90 e0       	ldi	r25, 0x00	; 0
    321e:	0e 94 37 12 	call	0x246e	; 0x246e <print_date>
			print_symbol(8, HERZ_KLEIN_WIDTH, herzKleinOffenSymb, get_dateXPos() + get_dayWidth() / 2 - 4, POS_DATE_SET - 10);
    3222:	0e 94 15 11 	call	0x222a	; 0x222a <get_dateXPos>
    3226:	ec 01       	movw	r28, r24
    3228:	0e 94 b8 10 	call	0x2170	; 0x2170 <get_dayWidth>
    322c:	99 23       	and	r25, r25
    322e:	0c f4       	brge	.+2      	; 0x3232 <set_day+0xd6>
    3230:	01 96       	adiw	r24, 0x01	; 1
    3232:	9c 01       	movw	r18, r24
    3234:	35 95       	asr	r19
    3236:	27 95       	ror	r18
    3238:	2c 0f       	add	r18, r28
    323a:	3d 1f       	adc	r19, r29
    323c:	24 50       	subi	r18, 0x04	; 4
    323e:	31 09       	sbc	r19, r1
    3240:	02 e0       	ldi	r16, 0x02	; 2
    3242:	10 e0       	ldi	r17, 0x00	; 0
    3244:	46 ec       	ldi	r20, 0xC6	; 198
    3246:	51 e0       	ldi	r21, 0x01	; 1
    3248:	6a e0       	ldi	r22, 0x0A	; 10
    324a:	70 e0       	ldi	r23, 0x00	; 0
    324c:	88 e0       	ldi	r24, 0x08	; 8
    324e:	90 e0       	ldi	r25, 0x00	; 0
    3250:	0e 94 59 08 	call	0x10b2	; 0x10b2 <print_symbol>
			update_LCD();
    3254:	0e 94 2a 08 	call	0x1054	; 0x1054 <update_LCD>
		}
		goodNight();
    3258:	0e 94 4c 14 	call	0x2898	; 0x2898 <goodNight>
		check_light();
    325c:	0e 94 39 13 	call	0x2672	; 0x2672 <check_light>

void set_day(){
	cli();
	btn_drehenc_pushed = false;
	sei();
	while(!btn_drehenc_pushed){
    3260:	80 91 6e 01 	lds	r24, 0x016E
    3264:	88 23       	and	r24, r24
    3266:	09 f4       	brne	.+2      	; 0x326a <set_day+0x10e>
    3268:	89 cf       	rjmp	.-238    	; 0x317c <set_day+0x20>
    326a:	02 c0       	rjmp	.+4      	; 0x3270 <set_day+0x114>
		}
		update_LCD();
	}
}

void set_day(){
    326c:	de 2d       	mov	r29, r14
    326e:	d3 cf       	rjmp	.-90     	; 0x3216 <set_day+0xba>
			update_LCD();
		}
		goodNight();
		check_light();
	}
}
    3270:	df 91       	pop	r29
    3272:	cf 91       	pop	r28
    3274:	1f 91       	pop	r17
    3276:	0f 91       	pop	r16
    3278:	ff 90       	pop	r15
    327a:	ef 90       	pop	r14
    327c:	08 95       	ret

0000327e <set_month>:

void set_month(){
    327e:	cf 92       	push	r12
    3280:	df 92       	push	r13
    3282:	ef 92       	push	r14
    3284:	ff 92       	push	r15
    3286:	0f 93       	push	r16
    3288:	1f 93       	push	r17
    328a:	cf 93       	push	r28
    328c:	df 93       	push	r29
	cli();
    328e:	f8 94       	cli
	btn_drehenc_pushed = false;
    3290:	10 92 6e 01 	sts	0x016E, r1
	sei();
    3294:	78 94       	sei
	while(!btn_drehenc_pushed){
    3296:	80 91 6e 01 	lds	r24, 0x016E
    329a:	81 11       	cpse	r24, r1
    329c:	82 c0       	rjmp	.+260    	; 0x33a2 <set_month+0x124>
		if(rotary != 0){
			month += rotary;
			cli();
			rotary = 0;
			sei();
			month = month % 12;
    329e:	0f 2e       	mov	r0, r31
    32a0:	fc e0       	ldi	r31, 0x0C	; 12
    32a2:	cf 2e       	mov	r12, r31
    32a4:	d1 2c       	mov	r13, r1
    32a6:	f0 2d       	mov	r31, r0
		goodNight();
		check_light();
	}
}

void set_month(){
    32a8:	e1 2c       	mov	r14, r1
    32aa:	fe 2c       	mov	r15, r14
	cli();
	btn_drehenc_pushed = false;
	sei();
	while(!btn_drehenc_pushed){
		if(rotary != 0){
    32ac:	80 91 6f 01 	lds	r24, 0x016F
    32b0:	90 91 70 01 	lds	r25, 0x0170
    32b4:	00 97       	sbiw	r24, 0x00	; 0
    32b6:	09 f4       	brne	.+2      	; 0x32ba <set_month+0x3c>
    32b8:	68 c0       	rjmp	.+208    	; 0x338a <set_month+0x10c>
			month += rotary;
    32ba:	20 91 04 01 	lds	r18, 0x0104
    32be:	30 91 05 01 	lds	r19, 0x0105
    32c2:	82 0f       	add	r24, r18
    32c4:	93 1f       	adc	r25, r19
    32c6:	90 93 05 01 	sts	0x0105, r25
    32ca:	80 93 04 01 	sts	0x0104, r24
			cli();
    32ce:	f8 94       	cli
			rotary = 0;
    32d0:	10 92 70 01 	sts	0x0170, r1
    32d4:	10 92 6f 01 	sts	0x016F, r1
			sei();
    32d8:	78 94       	sei
			month = month % 12;
    32da:	80 91 04 01 	lds	r24, 0x0104
    32de:	90 91 05 01 	lds	r25, 0x0105
    32e2:	b6 01       	movw	r22, r12
    32e4:	0e 94 6f 22 	call	0x44de	; 0x44de <__divmodhi4>
			if (month < 0) {
    32e8:	99 23       	and	r25, r25
    32ea:	2c f0       	brlt	.+10     	; 0x32f6 <set_month+0x78>
		if(rotary != 0){
			month += rotary;
			cli();
			rotary = 0;
			sei();
			month = month % 12;
    32ec:	90 93 05 01 	sts	0x0105, r25
    32f0:	80 93 04 01 	sts	0x0104, r24
    32f4:	05 c0       	rjmp	.+10     	; 0x3300 <set_month+0x82>
			if (month < 0) {
				month += 12;
    32f6:	0c 96       	adiw	r24, 0x0c	; 12
    32f8:	90 93 05 01 	sts	0x0105, r25
    32fc:	80 93 04 01 	sts	0x0104, r24
			}
			if(day > pgm_read_byte(&daysPerMonth[month])){
    3300:	e0 91 04 01 	lds	r30, 0x0104
    3304:	f0 91 05 01 	lds	r31, 0x0105
    3308:	e4 58       	subi	r30, 0x84	; 132
    330a:	ff 4f       	sbci	r31, 0xFF	; 255
    330c:	84 91       	lpm	r24, Z
    330e:	90 e0       	ldi	r25, 0x00	; 0
    3310:	20 91 06 01 	lds	r18, 0x0106
    3314:	30 91 07 01 	lds	r19, 0x0107
    3318:	82 17       	cp	r24, r18
    331a:	93 07       	cpc	r25, r19
    331c:	0c f0       	brlt	.+2      	; 0x3320 <set_month+0xa2>
    331e:	3f c0       	rjmp	.+126    	; 0x339e <set_month+0x120>
				day = pgm_read_byte(&daysPerMonth[month]);
    3320:	84 91       	lpm	r24, Z
    3322:	90 e0       	ldi	r25, 0x00	; 0
    3324:	90 93 07 01 	sts	0x0107, r25
    3328:	80 93 06 01 	sts	0x0106, r24
    332c:	38 c0       	rjmp	.+112    	; 0x339e <set_month+0x120>
			}
			for(int x = 0; x<128; x++){
				for(int y = 0; y<10; y++)
				reset_pixel(x,y);
    332e:	6c 2f       	mov	r22, r28
    3330:	8d 2f       	mov	r24, r29
    3332:	0e 94 06 08 	call	0x100c	; 0x100c <reset_pixel>
    3336:	cf 5f       	subi	r28, 0xFF	; 255
			}
			if(day > pgm_read_byte(&daysPerMonth[month])){
				day = pgm_read_byte(&daysPerMonth[month]);
			}
			for(int x = 0; x<128; x++){
				for(int y = 0; y<10; y++)
    3338:	ca 30       	cpi	r28, 0x0A	; 10
    333a:	c9 f7       	brne	.-14     	; 0x332e <set_month+0xb0>
    333c:	df 5f       	subi	r29, 0xFF	; 255
				month += 12;
			}
			if(day > pgm_read_byte(&daysPerMonth[month])){
				day = pgm_read_byte(&daysPerMonth[month]);
			}
			for(int x = 0; x<128; x++){
    333e:	d0 38       	cpi	r29, 0x80	; 128
    3340:	11 f0       	breq	.+4      	; 0x3346 <set_month+0xc8>
		goodNight();
		check_light();
	}
}

void set_month(){
    3342:	cf 2d       	mov	r28, r15
    3344:	f4 cf       	rjmp	.-24     	; 0x332e <set_month+0xb0>
			for(int x = 0; x<128; x++){
				for(int y = 0; y<10; y++)
				reset_pixel(x,y);
			}
			
			print_date(POS_DATE_SET);
    3346:	c6 01       	movw	r24, r12
    3348:	0e 94 37 12 	call	0x246e	; 0x246e <print_date>
			print_symbol(8, HERZ_KLEIN_WIDTH, herzKleinOffenSymb, get_dateXPos() + get_dayWidth() + get_monthWidth() / 2 - 4, POS_DATE_SET - 10);
    334c:	0e 94 15 11 	call	0x222a	; 0x222a <get_dateXPos>
    3350:	ec 01       	movw	r28, r24
    3352:	0e 94 b8 10 	call	0x2170	; 0x2170 <get_dayWidth>
    3356:	c8 0f       	add	r28, r24
    3358:	d9 1f       	adc	r29, r25
    335a:	0e 94 dd 10 	call	0x21ba	; 0x21ba <get_monthWidth>
    335e:	99 23       	and	r25, r25
    3360:	0c f4       	brge	.+2      	; 0x3364 <set_month+0xe6>
    3362:	01 96       	adiw	r24, 0x01	; 1
    3364:	95 95       	asr	r25
    3366:	87 95       	ror	r24
    3368:	9e 01       	movw	r18, r28
    336a:	28 0f       	add	r18, r24
    336c:	39 1f       	adc	r19, r25
    336e:	24 50       	subi	r18, 0x04	; 4
    3370:	31 09       	sbc	r19, r1
    3372:	02 e0       	ldi	r16, 0x02	; 2
    3374:	10 e0       	ldi	r17, 0x00	; 0
    3376:	46 ec       	ldi	r20, 0xC6	; 198
    3378:	51 e0       	ldi	r21, 0x01	; 1
    337a:	6a e0       	ldi	r22, 0x0A	; 10
    337c:	70 e0       	ldi	r23, 0x00	; 0
    337e:	88 e0       	ldi	r24, 0x08	; 8
    3380:	90 e0       	ldi	r25, 0x00	; 0
    3382:	0e 94 59 08 	call	0x10b2	; 0x10b2 <print_symbol>
			update_LCD();
    3386:	0e 94 2a 08 	call	0x1054	; 0x1054 <update_LCD>
		}
		goodNight();
    338a:	0e 94 4c 14 	call	0x2898	; 0x2898 <goodNight>
		check_light();
    338e:	0e 94 39 13 	call	0x2672	; 0x2672 <check_light>

void set_month(){
	cli();
	btn_drehenc_pushed = false;
	sei();
	while(!btn_drehenc_pushed){
    3392:	80 91 6e 01 	lds	r24, 0x016E
    3396:	88 23       	and	r24, r24
    3398:	09 f4       	brne	.+2      	; 0x339c <set_month+0x11e>
    339a:	88 cf       	rjmp	.-240    	; 0x32ac <set_month+0x2e>
    339c:	02 c0       	rjmp	.+4      	; 0x33a2 <set_month+0x124>
		goodNight();
		check_light();
	}
}

void set_month(){
    339e:	de 2d       	mov	r29, r14
    33a0:	d0 cf       	rjmp	.-96     	; 0x3342 <set_month+0xc4>
			update_LCD();
		}
		goodNight();
		check_light();
	}
}
    33a2:	df 91       	pop	r29
    33a4:	cf 91       	pop	r28
    33a6:	1f 91       	pop	r17
    33a8:	0f 91       	pop	r16
    33aa:	ff 90       	pop	r15
    33ac:	ef 90       	pop	r14
    33ae:	df 90       	pop	r13
    33b0:	cf 90       	pop	r12
    33b2:	08 95       	ret

000033b4 <set_year>:

void set_year(){
    33b4:	cf 92       	push	r12
    33b6:	df 92       	push	r13
    33b8:	ef 92       	push	r14
    33ba:	ff 92       	push	r15
    33bc:	0f 93       	push	r16
    33be:	1f 93       	push	r17
    33c0:	cf 93       	push	r28
    33c2:	df 93       	push	r29
	cli();
    33c4:	f8 94       	cli
	btn_drehenc_pushed = false;
    33c6:	10 92 6e 01 	sts	0x016E, r1
	sei();
    33ca:	78 94       	sei
	while(!btn_drehenc_pushed){
    33cc:	80 91 6e 01 	lds	r24, 0x016E
    33d0:	81 11       	cpse	r24, r1
    33d2:	7a c0       	rjmp	.+244    	; 0x34c8 <set_year+0x114>
		goodNight();
		check_light();
	}
}

void set_year(){
    33d4:	e1 2c       	mov	r14, r1
    33d6:	0f 2e       	mov	r0, r31
    33d8:	fe e1       	ldi	r31, 0x1E	; 30
    33da:	ff 2e       	mov	r15, r31
    33dc:	f0 2d       	mov	r31, r0
			year += rotary;
			cli();
			rotary = 0;
			sei();
			if (year < 0) {
				year = 9999;
    33de:	0f 2e       	mov	r0, r31
    33e0:	ff e0       	ldi	r31, 0x0F	; 15
    33e2:	cf 2e       	mov	r12, r31
    33e4:	f7 e2       	ldi	r31, 0x27	; 39
    33e6:	df 2e       	mov	r13, r31
    33e8:	f0 2d       	mov	r31, r0
void set_year(){
	cli();
	btn_drehenc_pushed = false;
	sei();
	while(!btn_drehenc_pushed){
		if(rotary != 0){
    33ea:	80 91 6f 01 	lds	r24, 0x016F
    33ee:	90 91 70 01 	lds	r25, 0x0170
    33f2:	00 97       	sbiw	r24, 0x00	; 0
    33f4:	09 f4       	brne	.+2      	; 0x33f8 <set_year+0x44>
    33f6:	5f c0       	rjmp	.+190    	; 0x34b6 <set_year+0x102>
			year += rotary;
    33f8:	20 91 02 01 	lds	r18, 0x0102
    33fc:	30 91 03 01 	lds	r19, 0x0103
    3400:	82 0f       	add	r24, r18
    3402:	93 1f       	adc	r25, r19
    3404:	90 93 03 01 	sts	0x0103, r25
    3408:	80 93 02 01 	sts	0x0102, r24
			cli();
    340c:	f8 94       	cli
			rotary = 0;
    340e:	10 92 70 01 	sts	0x0170, r1
    3412:	10 92 6f 01 	sts	0x016F, r1
			sei();
    3416:	78 94       	sei
			if (year < 0) {
    3418:	80 91 02 01 	lds	r24, 0x0102
    341c:	90 91 03 01 	lds	r25, 0x0103
    3420:	99 23       	and	r25, r25
    3422:	2c f4       	brge	.+10     	; 0x342e <set_year+0x7a>
				year = 9999;
    3424:	d0 92 03 01 	sts	0x0103, r13
    3428:	c0 92 02 01 	sts	0x0102, r12
    342c:	18 c0       	rjmp	.+48     	; 0x345e <set_year+0xaa>
			}
			if(year > 9999){
    342e:	80 31       	cpi	r24, 0x10	; 16
    3430:	27 e2       	ldi	r18, 0x27	; 39
    3432:	92 07       	cpc	r25, r18
    3434:	a4 f0       	brlt	.+40     	; 0x345e <set_year+0xaa>
				year -= 10000;
    3436:	80 51       	subi	r24, 0x10	; 16
    3438:	97 42       	sbci	r25, 0x27	; 39
    343a:	90 93 03 01 	sts	0x0103, r25
    343e:	80 93 02 01 	sts	0x0102, r24
    3442:	0d c0       	rjmp	.+26     	; 0x345e <set_year+0xaa>
			}
			for(int x = 0; x<128; x++){
				for(int y = 30; y<40; y++)
				reset_pixel(x,y);
    3444:	6c 2f       	mov	r22, r28
    3446:	8d 2f       	mov	r24, r29
    3448:	0e 94 06 08 	call	0x100c	; 0x100c <reset_pixel>
    344c:	cf 5f       	subi	r28, 0xFF	; 255
			}
			if(year > 9999){
				year -= 10000;
			}
			for(int x = 0; x<128; x++){
				for(int y = 30; y<40; y++)
    344e:	c8 32       	cpi	r28, 0x28	; 40
    3450:	c9 f7       	brne	.-14     	; 0x3444 <set_year+0x90>
    3452:	df 5f       	subi	r29, 0xFF	; 255
				year = 9999;
			}
			if(year > 9999){
				year -= 10000;
			}
			for(int x = 0; x<128; x++){
    3454:	d0 38       	cpi	r29, 0x80	; 128
    3456:	21 f4       	brne	.+8      	; 0x3460 <set_year+0xac>
    3458:	1e 2d       	mov	r17, r14
		goodNight();
		check_light();
	}
}

void set_year(){
    345a:	dc 2f       	mov	r29, r28
    345c:	0d c0       	rjmp	.+26     	; 0x3478 <set_year+0xc4>
    345e:	de 2d       	mov	r29, r14
    3460:	cf 2d       	mov	r28, r15
    3462:	f0 cf       	rjmp	.-32     	; 0x3444 <set_year+0x90>
				for(int y = 30; y<40; y++)
				reset_pixel(x,y);
			}
			for(int x = 0; x<90; x++){
				for(int y = YPOS_YEAR; y<YPOS_YEAR + 17; y++){
					reset_pixel(x,y);
    3464:	6c 2f       	mov	r22, r28
    3466:	81 2f       	mov	r24, r17
    3468:	0e 94 06 08 	call	0x100c	; 0x100c <reset_pixel>
    346c:	cf 5f       	subi	r28, 0xFF	; 255
			for(int x = 0; x<128; x++){
				for(int y = 30; y<40; y++)
				reset_pixel(x,y);
			}
			for(int x = 0; x<90; x++){
				for(int y = YPOS_YEAR; y<YPOS_YEAR + 17; y++){
    346e:	c9 33       	cpi	r28, 0x39	; 57
    3470:	c9 f7       	brne	.-14     	; 0x3464 <set_year+0xb0>
    3472:	1f 5f       	subi	r17, 0xFF	; 255
			}
			for(int x = 0; x<128; x++){
				for(int y = 30; y<40; y++)
				reset_pixel(x,y);
			}
			for(int x = 0; x<90; x++){
    3474:	1a 35       	cpi	r17, 0x5A	; 90
    3476:	11 f0       	breq	.+4      	; 0x347c <set_year+0xc8>
		goodNight();
		check_light();
	}
}

void set_year(){
    3478:	cd 2f       	mov	r28, r29
    347a:	f4 cf       	rjmp	.-24     	; 0x3464 <set_year+0xb0>
			for(int x = 0; x<90; x++){
				for(int y = YPOS_YEAR; y<YPOS_YEAR + 17; y++){
					reset_pixel(x,y);
				}
			}
			print_year();
    347c:	0e 94 57 10 	call	0x20ae	; 0x20ae <print_year>
			print_symbol(8, HERZ_KLEIN_WIDTH, herzKleinOffenSymb, get_yearXPos() + get_yearWidth() / 2 - 4, YPOS_YEAR - 10);
    3480:	0e 94 49 10 	call	0x2092	; 0x2092 <get_yearXPos>
    3484:	ec 01       	movw	r28, r24
    3486:	0e 94 25 10 	call	0x204a	; 0x204a <get_yearWidth>
    348a:	99 23       	and	r25, r25
    348c:	0c f4       	brge	.+2      	; 0x3490 <set_year+0xdc>
    348e:	01 96       	adiw	r24, 0x01	; 1
    3490:	9c 01       	movw	r18, r24
    3492:	35 95       	asr	r19
    3494:	27 95       	ror	r18
    3496:	2c 0f       	add	r18, r28
    3498:	3d 1f       	adc	r19, r29
    349a:	24 50       	subi	r18, 0x04	; 4
    349c:	31 09       	sbc	r19, r1
    349e:	0e e1       	ldi	r16, 0x1E	; 30
    34a0:	10 e0       	ldi	r17, 0x00	; 0
    34a2:	46 ec       	ldi	r20, 0xC6	; 198
    34a4:	51 e0       	ldi	r21, 0x01	; 1
    34a6:	6a e0       	ldi	r22, 0x0A	; 10
    34a8:	70 e0       	ldi	r23, 0x00	; 0
    34aa:	88 e0       	ldi	r24, 0x08	; 8
    34ac:	90 e0       	ldi	r25, 0x00	; 0
    34ae:	0e 94 59 08 	call	0x10b2	; 0x10b2 <print_symbol>
			update_LCD();
    34b2:	0e 94 2a 08 	call	0x1054	; 0x1054 <update_LCD>
		}
		goodNight();
    34b6:	0e 94 4c 14 	call	0x2898	; 0x2898 <goodNight>
		check_light();
    34ba:	0e 94 39 13 	call	0x2672	; 0x2672 <check_light>

void set_year(){
	cli();
	btn_drehenc_pushed = false;
	sei();
	while(!btn_drehenc_pushed){
    34be:	80 91 6e 01 	lds	r24, 0x016E
    34c2:	88 23       	and	r24, r24
    34c4:	09 f4       	brne	.+2      	; 0x34c8 <set_year+0x114>
    34c6:	91 cf       	rjmp	.-222    	; 0x33ea <set_year+0x36>
			update_LCD();
		}
		goodNight();
		check_light();
	}
	goodNight();
    34c8:	0e 94 4c 14 	call	0x2898	; 0x2898 <goodNight>
	check_light();
    34cc:	0e 94 39 13 	call	0x2672	; 0x2672 <check_light>
}
    34d0:	df 91       	pop	r29
    34d2:	cf 91       	pop	r28
    34d4:	1f 91       	pop	r17
    34d6:	0f 91       	pop	r16
    34d8:	ff 90       	pop	r15
    34da:	ef 90       	pop	r14
    34dc:	df 90       	pop	r13
    34de:	cf 90       	pop	r12
    34e0:	08 95       	ret

000034e2 <set_date>:
		}
		update_LCD();
	}
}

void set_date(){
    34e2:	af 92       	push	r10
    34e4:	bf 92       	push	r11
    34e6:	cf 92       	push	r12
    34e8:	df 92       	push	r13
    34ea:	ef 92       	push	r14
    34ec:	ff 92       	push	r15
    34ee:	0f 93       	push	r16
    34f0:	1f 93       	push	r17
    34f2:	cf 93       	push	r28
    34f4:	df 93       	push	r29
	clear_pixelMatrix();
    34f6:	0e 94 6b 0d 	call	0x1ad6	; 0x1ad6 <clear_pixelMatrix>
	print_date(POS_DATE_SET);
    34fa:	8c e0       	ldi	r24, 0x0C	; 12
    34fc:	90 e0       	ldi	r25, 0x00	; 0
    34fe:	0e 94 37 12 	call	0x246e	; 0x246e <print_date>
	print_year();
    3502:	0e 94 57 10 	call	0x20ae	; 0x20ae <print_year>
	print_symbol(16,17, hakenSymb,108,46);
    3506:	0e e2       	ldi	r16, 0x2E	; 46
    3508:	10 e0       	ldi	r17, 0x00	; 0
    350a:	2c e6       	ldi	r18, 0x6C	; 108
    350c:	30 e0       	ldi	r19, 0x00	; 0
    350e:	44 e8       	ldi	r20, 0x84	; 132
    3510:	51 e0       	ldi	r21, 0x01	; 1
    3512:	61 e1       	ldi	r22, 0x11	; 17
    3514:	70 e0       	ldi	r23, 0x00	; 0
    3516:	80 e1       	ldi	r24, 0x10	; 16
    3518:	90 e0       	ldi	r25, 0x00	; 0
    351a:	0e 94 59 08 	call	0x10b2	; 0x10b2 <print_symbol>
	print_symbol(8, HERZ_KLEIN_WIDTH, herzKleinSymb, get_dateXPos() + get_dayWidth() / 2 - 4, POS_DATE_SET - 10);
    351e:	0e 94 15 11 	call	0x222a	; 0x222a <get_dateXPos>
    3522:	ec 01       	movw	r28, r24
    3524:	0e 94 b8 10 	call	0x2170	; 0x2170 <get_dayWidth>
    3528:	99 23       	and	r25, r25
    352a:	0c f4       	brge	.+2      	; 0x352e <set_date+0x4c>
    352c:	01 96       	adiw	r24, 0x01	; 1
    352e:	9c 01       	movw	r18, r24
    3530:	35 95       	asr	r19
    3532:	27 95       	ror	r18
    3534:	2c 0f       	add	r18, r28
    3536:	3d 1f       	adc	r19, r29
    3538:	24 50       	subi	r18, 0x04	; 4
    353a:	31 09       	sbc	r19, r1
    353c:	02 e0       	ldi	r16, 0x02	; 2
    353e:	10 e0       	ldi	r17, 0x00	; 0
    3540:	42 ed       	ldi	r20, 0xD2	; 210
    3542:	51 e0       	ldi	r21, 0x01	; 1
    3544:	6a e0       	ldi	r22, 0x0A	; 10
    3546:	70 e0       	ldi	r23, 0x00	; 0
    3548:	88 e0       	ldi	r24, 0x08	; 8
    354a:	90 e0       	ldi	r25, 0x00	; 0
    354c:	0e 94 59 08 	call	0x10b2	; 0x10b2 <print_symbol>
	update_LCD();
    3550:	0e 94 2a 08 	call	0x1054	; 0x1054 <update_LCD>
	int old_selectedItem = 0;
	int item = 0;
    3554:	e1 2c       	mov	r14, r1
    3556:	f1 2c       	mov	r15, r1
	print_date(POS_DATE_SET);
	print_year();
	print_symbol(16,17, hakenSymb,108,46);
	print_symbol(8, HERZ_KLEIN_WIDTH, herzKleinSymb, get_dateXPos() + get_dayWidth() / 2 - 4, POS_DATE_SET - 10);
	update_LCD();
	int old_selectedItem = 0;
    3558:	c0 e0       	ldi	r28, 0x00	; 0
    355a:	d0 e0       	ldi	r29, 0x00	; 0
	int item = 0;
	
	while (item != 3){
		cli();
		btn_drehenc_pushed = false;
    355c:	a1 2c       	mov	r10, r1
	print_date(POS_DATE_SET);
	print_year();
	print_symbol(16,17, hakenSymb,108,46);
	print_symbol(8, HERZ_KLEIN_WIDTH, herzKleinSymb, get_dateXPos() + get_dayWidth() / 2 - 4, POS_DATE_SET - 10);
	update_LCD();
	int old_selectedItem = 0;
    355e:	ba 2c       	mov	r11, r10
				item = item % 4;
				if(item<0){
					item += 4;
				}
			
				switch (old_selectedItem){
    3560:	0f 2e       	mov	r0, r31
    3562:	fe e1       	ldi	r31, 0x1E	; 30
    3564:	cf 2e       	mov	r12, r31
    3566:	f0 2d       	mov	r31, r0
	print_date(POS_DATE_SET);
	print_year();
	print_symbol(16,17, hakenSymb,108,46);
	print_symbol(8, HERZ_KLEIN_WIDTH, herzKleinSymb, get_dateXPos() + get_dayWidth() / 2 - 4, POS_DATE_SET - 10);
	update_LCD();
	int old_selectedItem = 0;
    3568:	da 2c       	mov	r13, r10
	int item = 0;
	
	while (item != 3){
		cli();
    356a:	f8 94       	cli
		btn_drehenc_pushed = false;
    356c:	a0 92 6e 01 	sts	0x016E, r10
		sei();
    3570:	78 94       	sei
		while(!btn_drehenc_pushed){
    3572:	80 91 6e 01 	lds	r24, 0x016E
    3576:	81 11       	cpse	r24, r1
    3578:	d4 c0       	rjmp	.+424    	; 0x3722 <set_date+0x240>
			if(rotary != 0){
    357a:	80 91 6f 01 	lds	r24, 0x016F
    357e:	90 91 70 01 	lds	r25, 0x0170
    3582:	00 97       	sbiw	r24, 0x00	; 0
    3584:	09 f4       	brne	.+2      	; 0x3588 <set_date+0xa6>
    3586:	c4 c0       	rjmp	.+392    	; 0x3710 <set_date+0x22e>
				item += rotary;
    3588:	8e 0d       	add	r24, r14
    358a:	9f 1d       	adc	r25, r15
				cli();
    358c:	f8 94       	cli
				rotary = 0;
    358e:	10 92 70 01 	sts	0x0170, r1
    3592:	10 92 6f 01 	sts	0x016F, r1
				sei();
    3596:	78 94       	sei
				item = item % 4;
    3598:	83 70       	andi	r24, 0x03	; 3
    359a:	90 78       	andi	r25, 0x80	; 128
    359c:	99 23       	and	r25, r25
    359e:	24 f4       	brge	.+8      	; 0x35a8 <set_date+0xc6>
    35a0:	01 97       	sbiw	r24, 0x01	; 1
    35a2:	8c 6f       	ori	r24, 0xFC	; 252
    35a4:	9f 6f       	ori	r25, 0xFF	; 255
    35a6:	01 96       	adiw	r24, 0x01	; 1
    35a8:	7c 01       	movw	r14, r24
				if(item<0){
    35aa:	99 23       	and	r25, r25
    35ac:	0c f0       	brlt	.+2      	; 0x35b0 <set_date+0xce>
    35ae:	80 c1       	rjmp	.+768    	; 0x38b0 <set_date+0x3ce>
					item += 4;
    35b0:	24 e0       	ldi	r18, 0x04	; 4
    35b2:	e2 0e       	add	r14, r18
    35b4:	f1 1c       	adc	r15, r1
    35b6:	7c c1       	rjmp	.+760    	; 0x38b0 <set_date+0x3ce>
				}
			
				switch (old_selectedItem){
					case 0: for(int x = 0; x<128; x++){
						for(int y = 0; y<10; y++)
						reset_pixel(x,y);
    35b8:	6c 2f       	mov	r22, r28
    35ba:	8d 2f       	mov	r24, r29
    35bc:	0e 94 06 08 	call	0x100c	; 0x100c <reset_pixel>
    35c0:	cf 5f       	subi	r28, 0xFF	; 255
					item += 4;
				}
			
				switch (old_selectedItem){
					case 0: for(int x = 0; x<128; x++){
						for(int y = 0; y<10; y++)
    35c2:	ca 30       	cpi	r28, 0x0A	; 10
    35c4:	c9 f7       	brne	.-14     	; 0x35b8 <set_date+0xd6>
    35c6:	df 5f       	subi	r29, 0xFF	; 255
				if(item<0){
					item += 4;
				}
			
				switch (old_selectedItem){
					case 0: for(int x = 0; x<128; x++){
    35c8:	d0 38       	cpi	r29, 0x80	; 128
    35ca:	11 f4       	brne	.+4      	; 0x35d0 <set_date+0xee>
    35cc:	2d c0       	rjmp	.+90     	; 0x3628 <set_date+0x146>
				item = item % 4;
				if(item<0){
					item += 4;
				}
			
				switch (old_selectedItem){
    35ce:	db 2d       	mov	r29, r11
	print_date(POS_DATE_SET);
	print_year();
	print_symbol(16,17, hakenSymb,108,46);
	print_symbol(8, HERZ_KLEIN_WIDTH, herzKleinSymb, get_dateXPos() + get_dayWidth() / 2 - 4, POS_DATE_SET - 10);
	update_LCD();
	int old_selectedItem = 0;
    35d0:	cd 2d       	mov	r28, r13
    35d2:	f2 cf       	rjmp	.-28     	; 0x35b8 <set_date+0xd6>
						for(int y = 0; y<10; y++)
						reset_pixel(x,y);
					} break;
					case 1: for(int x = 0; x<128; x++){
						for(int y = 0; y<10; y++)
						reset_pixel(x,y);
    35d4:	6c 2f       	mov	r22, r28
    35d6:	8d 2f       	mov	r24, r29
    35d8:	0e 94 06 08 	call	0x100c	; 0x100c <reset_pixel>
    35dc:	cf 5f       	subi	r28, 0xFF	; 255
					case 0: for(int x = 0; x<128; x++){
						for(int y = 0; y<10; y++)
						reset_pixel(x,y);
					} break;
					case 1: for(int x = 0; x<128; x++){
						for(int y = 0; y<10; y++)
    35de:	ca 30       	cpi	r28, 0x0A	; 10
    35e0:	c9 f7       	brne	.-14     	; 0x35d4 <set_date+0xf2>
    35e2:	df 5f       	subi	r29, 0xFF	; 255
				switch (old_selectedItem){
					case 0: for(int x = 0; x<128; x++){
						for(int y = 0; y<10; y++)
						reset_pixel(x,y);
					} break;
					case 1: for(int x = 0; x<128; x++){
    35e4:	d0 38       	cpi	r29, 0x80	; 128
    35e6:	11 f4       	brne	.+4      	; 0x35ec <set_date+0x10a>
    35e8:	1f c0       	rjmp	.+62     	; 0x3628 <set_date+0x146>
				item = item % 4;
				if(item<0){
					item += 4;
				}
			
				switch (old_selectedItem){
    35ea:	db 2d       	mov	r29, r11
    35ec:	cd 2d       	mov	r28, r13
    35ee:	f2 cf       	rjmp	.-28     	; 0x35d4 <set_date+0xf2>
						for(int y = 0; y<10; y++)
						reset_pixel(x,y);
					}break;
					case 2: for(int x = 0; x<128; x++){
						for(int y = 30; y<40; y++)
						reset_pixel(x,y);
    35f0:	6c 2f       	mov	r22, r28
    35f2:	8d 2f       	mov	r24, r29
    35f4:	0e 94 06 08 	call	0x100c	; 0x100c <reset_pixel>
    35f8:	cf 5f       	subi	r28, 0xFF	; 255
					case 1: for(int x = 0; x<128; x++){
						for(int y = 0; y<10; y++)
						reset_pixel(x,y);
					}break;
					case 2: for(int x = 0; x<128; x++){
						for(int y = 30; y<40; y++)
    35fa:	c8 32       	cpi	r28, 0x28	; 40
    35fc:	c9 f7       	brne	.-14     	; 0x35f0 <set_date+0x10e>
    35fe:	df 5f       	subi	r29, 0xFF	; 255
					} break;
					case 1: for(int x = 0; x<128; x++){
						for(int y = 0; y<10; y++)
						reset_pixel(x,y);
					}break;
					case 2: for(int x = 0; x<128; x++){
    3600:	d0 38       	cpi	r29, 0x80	; 128
    3602:	11 f4       	brne	.+4      	; 0x3608 <set_date+0x126>
    3604:	11 c0       	rjmp	.+34     	; 0x3628 <set_date+0x146>
				item = item % 4;
				if(item<0){
					item += 4;
				}
			
				switch (old_selectedItem){
    3606:	db 2d       	mov	r29, r11
    3608:	cc 2d       	mov	r28, r12
    360a:	f2 cf       	rjmp	.-28     	; 0x35f0 <set_date+0x10e>
						for(int y = 30; y<40; y++)
						reset_pixel(x,y);
					}break;
					case 3: for(int x = 94; x<104; x++){
						for(int y = 2+3*15+5; y<2+3*15+5+8; y++)
						reset_pixel(x,y);
    360c:	6c 2f       	mov	r22, r28
    360e:	8d 2f       	mov	r24, r29
    3610:	0e 94 06 08 	call	0x100c	; 0x100c <reset_pixel>
    3614:	cf 5f       	subi	r28, 0xFF	; 255
					case 2: for(int x = 0; x<128; x++){
						for(int y = 30; y<40; y++)
						reset_pixel(x,y);
					}break;
					case 3: for(int x = 94; x<104; x++){
						for(int y = 2+3*15+5; y<2+3*15+5+8; y++)
    3616:	cc 33       	cpi	r28, 0x3C	; 60
    3618:	c9 f7       	brne	.-14     	; 0x360c <set_date+0x12a>
    361a:	df 5f       	subi	r29, 0xFF	; 255
					}break;
					case 2: for(int x = 0; x<128; x++){
						for(int y = 30; y<40; y++)
						reset_pixel(x,y);
					}break;
					case 3: for(int x = 94; x<104; x++){
    361c:	d8 36       	cpi	r29, 0x68	; 104
    361e:	11 f4       	brne	.+4      	; 0x3624 <set_date+0x142>
    3620:	03 c0       	rjmp	.+6      	; 0x3628 <set_date+0x146>
				item = item % 4;
				if(item<0){
					item += 4;
				}
			
				switch (old_selectedItem){
    3622:	de e5       	ldi	r29, 0x5E	; 94
    3624:	c4 e3       	ldi	r28, 0x34	; 52
    3626:	f2 cf       	rjmp	.-28     	; 0x360c <set_date+0x12a>
					case 3: for(int x = 94; x<104; x++){
						for(int y = 2+3*15+5; y<2+3*15+5+8; y++)
						reset_pixel(x,y);
					}break;
				}
				switch (item) {
    3628:	81 e0       	ldi	r24, 0x01	; 1
    362a:	e8 16       	cp	r14, r24
    362c:	f1 04       	cpc	r15, r1
    362e:	49 f1       	breq	.+82     	; 0x3682 <set_date+0x1a0>
    3630:	24 f4       	brge	.+8      	; 0x363a <set_date+0x158>
    3632:	e1 14       	cp	r14, r1
    3634:	f1 04       	cpc	r15, r1
    3636:	59 f0       	breq	.+22     	; 0x364e <set_date+0x16c>
    3638:	68 c0       	rjmp	.+208    	; 0x370a <set_date+0x228>
    363a:	82 e0       	ldi	r24, 0x02	; 2
    363c:	e8 16       	cp	r14, r24
    363e:	f1 04       	cpc	r15, r1
    3640:	f1 f1       	breq	.+124    	; 0x36be <set_date+0x1dc>
    3642:	23 e0       	ldi	r18, 0x03	; 3
    3644:	e2 16       	cp	r14, r18
    3646:	f1 04       	cpc	r15, r1
    3648:	09 f4       	brne	.+2      	; 0x364c <set_date+0x16a>
    364a:	53 c0       	rjmp	.+166    	; 0x36f2 <set_date+0x210>
    364c:	5e c0       	rjmp	.+188    	; 0x370a <set_date+0x228>
					case 0: print_symbol(8, HERZ_KLEIN_WIDTH, herzKleinSymb, get_dateXPos() + get_dayWidth() / 2 - 4, POS_DATE_SET - 10); break; //-4 = halbe Lnge Herz
    364e:	0e 94 15 11 	call	0x222a	; 0x222a <get_dateXPos>
    3652:	ec 01       	movw	r28, r24
    3654:	0e 94 b8 10 	call	0x2170	; 0x2170 <get_dayWidth>
    3658:	99 23       	and	r25, r25
    365a:	0c f4       	brge	.+2      	; 0x365e <set_date+0x17c>
    365c:	01 96       	adiw	r24, 0x01	; 1
    365e:	9c 01       	movw	r18, r24
    3660:	35 95       	asr	r19
    3662:	27 95       	ror	r18
    3664:	2c 0f       	add	r18, r28
    3666:	3d 1f       	adc	r19, r29
    3668:	24 50       	subi	r18, 0x04	; 4
    366a:	31 09       	sbc	r19, r1
    366c:	02 e0       	ldi	r16, 0x02	; 2
    366e:	10 e0       	ldi	r17, 0x00	; 0
    3670:	42 ed       	ldi	r20, 0xD2	; 210
    3672:	51 e0       	ldi	r21, 0x01	; 1
    3674:	6a e0       	ldi	r22, 0x0A	; 10
    3676:	70 e0       	ldi	r23, 0x00	; 0
    3678:	88 e0       	ldi	r24, 0x08	; 8
    367a:	90 e0       	ldi	r25, 0x00	; 0
    367c:	0e 94 59 08 	call	0x10b2	; 0x10b2 <print_symbol>
    3680:	44 c0       	rjmp	.+136    	; 0x370a <set_date+0x228>
					case 1: print_symbol(8, HERZ_KLEIN_WIDTH, herzKleinSymb, get_dateXPos() + get_dayWidth() + get_monthWidth() / 2 - 4, POS_DATE_SET - 10); break;
    3682:	0e 94 15 11 	call	0x222a	; 0x222a <get_dateXPos>
    3686:	ec 01       	movw	r28, r24
    3688:	0e 94 b8 10 	call	0x2170	; 0x2170 <get_dayWidth>
    368c:	c8 0f       	add	r28, r24
    368e:	d9 1f       	adc	r29, r25
    3690:	0e 94 dd 10 	call	0x21ba	; 0x21ba <get_monthWidth>
    3694:	99 23       	and	r25, r25
    3696:	0c f4       	brge	.+2      	; 0x369a <set_date+0x1b8>
    3698:	01 96       	adiw	r24, 0x01	; 1
    369a:	9c 01       	movw	r18, r24
    369c:	35 95       	asr	r19
    369e:	27 95       	ror	r18
    36a0:	2c 0f       	add	r18, r28
    36a2:	3d 1f       	adc	r19, r29
    36a4:	24 50       	subi	r18, 0x04	; 4
    36a6:	31 09       	sbc	r19, r1
    36a8:	02 e0       	ldi	r16, 0x02	; 2
    36aa:	10 e0       	ldi	r17, 0x00	; 0
    36ac:	42 ed       	ldi	r20, 0xD2	; 210
    36ae:	51 e0       	ldi	r21, 0x01	; 1
    36b0:	6a e0       	ldi	r22, 0x0A	; 10
    36b2:	70 e0       	ldi	r23, 0x00	; 0
    36b4:	88 e0       	ldi	r24, 0x08	; 8
    36b6:	90 e0       	ldi	r25, 0x00	; 0
    36b8:	0e 94 59 08 	call	0x10b2	; 0x10b2 <print_symbol>
    36bc:	26 c0       	rjmp	.+76     	; 0x370a <set_date+0x228>
					case 2: print_symbol(8, HERZ_KLEIN_WIDTH, herzKleinSymb, get_yearXPos() + get_yearWidth() / 2 - 4, YPOS_YEAR - 10);break;
    36be:	0e 94 49 10 	call	0x2092	; 0x2092 <get_yearXPos>
    36c2:	ec 01       	movw	r28, r24
    36c4:	0e 94 25 10 	call	0x204a	; 0x204a <get_yearWidth>
    36c8:	99 23       	and	r25, r25
    36ca:	0c f4       	brge	.+2      	; 0x36ce <set_date+0x1ec>
    36cc:	01 96       	adiw	r24, 0x01	; 1
    36ce:	9c 01       	movw	r18, r24
    36d0:	35 95       	asr	r19
    36d2:	27 95       	ror	r18
    36d4:	2c 0f       	add	r18, r28
    36d6:	3d 1f       	adc	r19, r29
    36d8:	24 50       	subi	r18, 0x04	; 4
    36da:	31 09       	sbc	r19, r1
    36dc:	0e e1       	ldi	r16, 0x1E	; 30
    36de:	10 e0       	ldi	r17, 0x00	; 0
    36e0:	42 ed       	ldi	r20, 0xD2	; 210
    36e2:	51 e0       	ldi	r21, 0x01	; 1
    36e4:	6a e0       	ldi	r22, 0x0A	; 10
    36e6:	70 e0       	ldi	r23, 0x00	; 0
    36e8:	88 e0       	ldi	r24, 0x08	; 8
    36ea:	90 e0       	ldi	r25, 0x00	; 0
    36ec:	0e 94 59 08 	call	0x10b2	; 0x10b2 <print_symbol>
    36f0:	0c c0       	rjmp	.+24     	; 0x370a <set_date+0x228>
					case 3: print_symbol(8, HERZ_KLEIN_WIDTH, herzKleinSymb, 94, 2+3*15+5);break;
    36f2:	04 e3       	ldi	r16, 0x34	; 52
    36f4:	10 e0       	ldi	r17, 0x00	; 0
    36f6:	2e e5       	ldi	r18, 0x5E	; 94
    36f8:	30 e0       	ldi	r19, 0x00	; 0
    36fa:	42 ed       	ldi	r20, 0xD2	; 210
    36fc:	51 e0       	ldi	r21, 0x01	; 1
    36fe:	6a e0       	ldi	r22, 0x0A	; 10
    3700:	70 e0       	ldi	r23, 0x00	; 0
    3702:	88 e0       	ldi	r24, 0x08	; 8
    3704:	90 e0       	ldi	r25, 0x00	; 0
    3706:	0e 94 59 08 	call	0x10b2	; 0x10b2 <print_symbol>
				}
				old_selectedItem = item;
				update_LCD();
    370a:	0e 94 2a 08 	call	0x1054	; 0x1054 <update_LCD>
    370e:	e7 01       	movw	r28, r14
			}
			goodNight();
    3710:	0e 94 4c 14 	call	0x2898	; 0x2898 <goodNight>
			check_light();
    3714:	0e 94 39 13 	call	0x2672	; 0x2672 <check_light>
	
	while (item != 3){
		cli();
		btn_drehenc_pushed = false;
		sei();
		while(!btn_drehenc_pushed){
    3718:	80 91 6e 01 	lds	r24, 0x016E
    371c:	88 23       	and	r24, r24
    371e:	09 f4       	brne	.+2      	; 0x3722 <set_date+0x240>
    3720:	2c cf       	rjmp	.-424    	; 0x357a <set_date+0x98>
				update_LCD();
			}
			goodNight();
			check_light();
		}
		cli();
    3722:	f8 94       	cli
		btn_drehenc_pushed = false;
    3724:	a0 92 6e 01 	sts	0x016E, r10
		sei();
    3728:	78 94       	sei
		switch (item) {
    372a:	81 e0       	ldi	r24, 0x01	; 1
    372c:	e8 16       	cp	r14, r24
    372e:	f1 04       	cpc	r15, r1
    3730:	09 f4       	brne	.+2      	; 0x3734 <set_date+0x252>
    3732:	40 c0       	rjmp	.+128    	; 0x37b4 <set_date+0x2d2>
    3734:	22 e0       	ldi	r18, 0x02	; 2
    3736:	e2 16       	cp	r14, r18
    3738:	f1 04       	cpc	r15, r1
    373a:	09 f4       	brne	.+2      	; 0x373e <set_date+0x25c>
    373c:	7a c0       	rjmp	.+244    	; 0x3832 <set_date+0x350>
    373e:	e1 14       	cp	r14, r1
    3740:	f1 04       	cpc	r15, r1
    3742:	09 f0       	breq	.+2      	; 0x3746 <set_date+0x264>
    3744:	ad c0       	rjmp	.+346    	; 0x38a0 <set_date+0x3be>
			case 0: {
				print_symbol(8, HERZ_KLEIN_WIDTH, herzKleinOffenSymb, get_dateXPos() + get_dayWidth() / 2 - 4, POS_DATE_SET - 10);
    3746:	0e 94 15 11 	call	0x222a	; 0x222a <get_dateXPos>
    374a:	8c 01       	movw	r16, r24
    374c:	0e 94 b8 10 	call	0x2170	; 0x2170 <get_dayWidth>
    3750:	99 23       	and	r25, r25
    3752:	0c f4       	brge	.+2      	; 0x3756 <set_date+0x274>
    3754:	01 96       	adiw	r24, 0x01	; 1
    3756:	9c 01       	movw	r18, r24
    3758:	35 95       	asr	r19
    375a:	27 95       	ror	r18
    375c:	20 0f       	add	r18, r16
    375e:	31 1f       	adc	r19, r17
    3760:	24 50       	subi	r18, 0x04	; 4
    3762:	31 09       	sbc	r19, r1
    3764:	02 e0       	ldi	r16, 0x02	; 2
    3766:	10 e0       	ldi	r17, 0x00	; 0
    3768:	46 ec       	ldi	r20, 0xC6	; 198
    376a:	51 e0       	ldi	r21, 0x01	; 1
    376c:	6a e0       	ldi	r22, 0x0A	; 10
    376e:	70 e0       	ldi	r23, 0x00	; 0
    3770:	88 e0       	ldi	r24, 0x08	; 8
    3772:	90 e0       	ldi	r25, 0x00	; 0
    3774:	0e 94 59 08 	call	0x10b2	; 0x10b2 <print_symbol>
				update_LCD();
    3778:	0e 94 2a 08 	call	0x1054	; 0x1054 <update_LCD>
				set_day();
    377c:	0e 94 ae 18 	call	0x315c	; 0x315c <set_day>
				print_symbol(8, HERZ_KLEIN_WIDTH, herzKleinSymb, get_dateXPos() + get_dayWidth() / 2 - 4, POS_DATE_SET - 10);
    3780:	0e 94 15 11 	call	0x222a	; 0x222a <get_dateXPos>
    3784:	8c 01       	movw	r16, r24
    3786:	0e 94 b8 10 	call	0x2170	; 0x2170 <get_dayWidth>
    378a:	99 23       	and	r25, r25
    378c:	0c f4       	brge	.+2      	; 0x3790 <set_date+0x2ae>
    378e:	01 96       	adiw	r24, 0x01	; 1
    3790:	9c 01       	movw	r18, r24
    3792:	35 95       	asr	r19
    3794:	27 95       	ror	r18
    3796:	20 0f       	add	r18, r16
    3798:	31 1f       	adc	r19, r17
    379a:	24 50       	subi	r18, 0x04	; 4
    379c:	31 09       	sbc	r19, r1
    379e:	02 e0       	ldi	r16, 0x02	; 2
    37a0:	10 e0       	ldi	r17, 0x00	; 0
    37a2:	42 ed       	ldi	r20, 0xD2	; 210
    37a4:	51 e0       	ldi	r21, 0x01	; 1
    37a6:	6a e0       	ldi	r22, 0x0A	; 10
    37a8:	70 e0       	ldi	r23, 0x00	; 0
    37aa:	88 e0       	ldi	r24, 0x08	; 8
    37ac:	90 e0       	ldi	r25, 0x00	; 0
    37ae:	0e 94 59 08 	call	0x10b2	; 0x10b2 <print_symbol>
				break;
    37b2:	8f c0       	rjmp	.+286    	; 0x38d2 <set_date+0x3f0>
			}
			case 1:{
				print_symbol(8, HERZ_KLEIN_WIDTH, herzKleinOffenSymb, get_dateXPos() + get_dayWidth() + get_monthWidth() / 2 - 4, POS_DATE_SET - 10);
    37b4:	0e 94 15 11 	call	0x222a	; 0x222a <get_dateXPos>
    37b8:	8c 01       	movw	r16, r24
    37ba:	0e 94 b8 10 	call	0x2170	; 0x2170 <get_dayWidth>
    37be:	08 0f       	add	r16, r24
    37c0:	19 1f       	adc	r17, r25
    37c2:	0e 94 dd 10 	call	0x21ba	; 0x21ba <get_monthWidth>
    37c6:	99 23       	and	r25, r25
    37c8:	0c f4       	brge	.+2      	; 0x37cc <set_date+0x2ea>
    37ca:	01 96       	adiw	r24, 0x01	; 1
    37cc:	9c 01       	movw	r18, r24
    37ce:	35 95       	asr	r19
    37d0:	27 95       	ror	r18
    37d2:	20 0f       	add	r18, r16
    37d4:	31 1f       	adc	r19, r17
    37d6:	24 50       	subi	r18, 0x04	; 4
    37d8:	31 09       	sbc	r19, r1
    37da:	02 e0       	ldi	r16, 0x02	; 2
    37dc:	10 e0       	ldi	r17, 0x00	; 0
    37de:	46 ec       	ldi	r20, 0xC6	; 198
    37e0:	51 e0       	ldi	r21, 0x01	; 1
    37e2:	6a e0       	ldi	r22, 0x0A	; 10
    37e4:	70 e0       	ldi	r23, 0x00	; 0
    37e6:	88 e0       	ldi	r24, 0x08	; 8
    37e8:	90 e0       	ldi	r25, 0x00	; 0
    37ea:	0e 94 59 08 	call	0x10b2	; 0x10b2 <print_symbol>
				update_LCD();
    37ee:	0e 94 2a 08 	call	0x1054	; 0x1054 <update_LCD>
				set_month();
    37f2:	0e 94 3f 19 	call	0x327e	; 0x327e <set_month>
				print_symbol(8, HERZ_KLEIN_WIDTH, herzKleinSymb, get_dateXPos() + get_dayWidth() + get_monthWidth() / 2 - 4, POS_DATE_SET - 10);
    37f6:	0e 94 15 11 	call	0x222a	; 0x222a <get_dateXPos>
    37fa:	8c 01       	movw	r16, r24
    37fc:	0e 94 b8 10 	call	0x2170	; 0x2170 <get_dayWidth>
    3800:	08 0f       	add	r16, r24
    3802:	19 1f       	adc	r17, r25
    3804:	0e 94 dd 10 	call	0x21ba	; 0x21ba <get_monthWidth>
    3808:	99 23       	and	r25, r25
    380a:	0c f4       	brge	.+2      	; 0x380e <set_date+0x32c>
    380c:	01 96       	adiw	r24, 0x01	; 1
    380e:	9c 01       	movw	r18, r24
    3810:	35 95       	asr	r19
    3812:	27 95       	ror	r18
    3814:	20 0f       	add	r18, r16
    3816:	31 1f       	adc	r19, r17
    3818:	24 50       	subi	r18, 0x04	; 4
    381a:	31 09       	sbc	r19, r1
    381c:	02 e0       	ldi	r16, 0x02	; 2
    381e:	10 e0       	ldi	r17, 0x00	; 0
    3820:	42 ed       	ldi	r20, 0xD2	; 210
    3822:	51 e0       	ldi	r21, 0x01	; 1
    3824:	6a e0       	ldi	r22, 0x0A	; 10
    3826:	70 e0       	ldi	r23, 0x00	; 0
    3828:	88 e0       	ldi	r24, 0x08	; 8
    382a:	90 e0       	ldi	r25, 0x00	; 0
    382c:	0e 94 59 08 	call	0x10b2	; 0x10b2 <print_symbol>
				break;
    3830:	50 c0       	rjmp	.+160    	; 0x38d2 <set_date+0x3f0>
			}
			case 2: {
				print_symbol(8, HERZ_KLEIN_WIDTH, herzKleinOffenSymb,  get_yearXPos() + get_yearWidth() / 2 - 4, YPOS_YEAR - 10);
    3832:	0e 94 49 10 	call	0x2092	; 0x2092 <get_yearXPos>
    3836:	8c 01       	movw	r16, r24
    3838:	0e 94 25 10 	call	0x204a	; 0x204a <get_yearWidth>
    383c:	99 23       	and	r25, r25
    383e:	0c f4       	brge	.+2      	; 0x3842 <set_date+0x360>
    3840:	01 96       	adiw	r24, 0x01	; 1
    3842:	9c 01       	movw	r18, r24
    3844:	35 95       	asr	r19
    3846:	27 95       	ror	r18
    3848:	20 0f       	add	r18, r16
    384a:	31 1f       	adc	r19, r17
    384c:	24 50       	subi	r18, 0x04	; 4
    384e:	31 09       	sbc	r19, r1
    3850:	0e e1       	ldi	r16, 0x1E	; 30
    3852:	10 e0       	ldi	r17, 0x00	; 0
    3854:	46 ec       	ldi	r20, 0xC6	; 198
    3856:	51 e0       	ldi	r21, 0x01	; 1
    3858:	6a e0       	ldi	r22, 0x0A	; 10
    385a:	70 e0       	ldi	r23, 0x00	; 0
    385c:	88 e0       	ldi	r24, 0x08	; 8
    385e:	90 e0       	ldi	r25, 0x00	; 0
    3860:	0e 94 59 08 	call	0x10b2	; 0x10b2 <print_symbol>
				update_LCD();
    3864:	0e 94 2a 08 	call	0x1054	; 0x1054 <update_LCD>
				set_year();
    3868:	0e 94 da 19 	call	0x33b4	; 0x33b4 <set_year>
				print_symbol(8, HERZ_KLEIN_WIDTH, herzKleinSymb,  get_yearXPos() + get_yearWidth() / 2 - 4, YPOS_YEAR - 10);
    386c:	0e 94 49 10 	call	0x2092	; 0x2092 <get_yearXPos>
    3870:	8c 01       	movw	r16, r24
    3872:	0e 94 25 10 	call	0x204a	; 0x204a <get_yearWidth>
    3876:	99 23       	and	r25, r25
    3878:	0c f4       	brge	.+2      	; 0x387c <set_date+0x39a>
    387a:	01 96       	adiw	r24, 0x01	; 1
    387c:	9c 01       	movw	r18, r24
    387e:	35 95       	asr	r19
    3880:	27 95       	ror	r18
    3882:	20 0f       	add	r18, r16
    3884:	31 1f       	adc	r19, r17
    3886:	24 50       	subi	r18, 0x04	; 4
    3888:	31 09       	sbc	r19, r1
    388a:	0e e1       	ldi	r16, 0x1E	; 30
    388c:	10 e0       	ldi	r17, 0x00	; 0
    388e:	42 ed       	ldi	r20, 0xD2	; 210
    3890:	51 e0       	ldi	r21, 0x01	; 1
    3892:	6a e0       	ldi	r22, 0x0A	; 10
    3894:	70 e0       	ldi	r23, 0x00	; 0
    3896:	88 e0       	ldi	r24, 0x08	; 8
    3898:	90 e0       	ldi	r25, 0x00	; 0
    389a:	0e 94 59 08 	call	0x10b2	; 0x10b2 <print_symbol>
				break;
    389e:	19 c0       	rjmp	.+50     	; 0x38d2 <set_date+0x3f0>
			}
			default: break;
		}
		update_LCD();
    38a0:	0e 94 2a 08 	call	0x1054	; 0x1054 <update_LCD>
	print_symbol(8, HERZ_KLEIN_WIDTH, herzKleinSymb, get_dateXPos() + get_dayWidth() / 2 - 4, POS_DATE_SET - 10);
	update_LCD();
	int old_selectedItem = 0;
	int item = 0;
	
	while (item != 3){
    38a4:	83 e0       	ldi	r24, 0x03	; 3
    38a6:	e8 16       	cp	r14, r24
    38a8:	f1 04       	cpc	r15, r1
    38aa:	09 f0       	breq	.+2      	; 0x38ae <set_date+0x3cc>
    38ac:	5e ce       	rjmp	.-836    	; 0x356a <set_date+0x88>
    38ae:	14 c0       	rjmp	.+40     	; 0x38d8 <set_date+0x3f6>
				item = item % 4;
				if(item<0){
					item += 4;
				}
			
				switch (old_selectedItem){
    38b0:	c1 30       	cpi	r28, 0x01	; 1
    38b2:	d1 05       	cpc	r29, r1
    38b4:	09 f4       	brne	.+2      	; 0x38b8 <set_date+0x3d6>
    38b6:	99 ce       	rjmp	.-718    	; 0x35ea <set_date+0x108>
    38b8:	24 f4       	brge	.+8      	; 0x38c2 <set_date+0x3e0>
    38ba:	cd 2b       	or	r28, r29
    38bc:	09 f4       	brne	.+2      	; 0x38c0 <set_date+0x3de>
    38be:	87 ce       	rjmp	.-754    	; 0x35ce <set_date+0xec>
    38c0:	b3 ce       	rjmp	.-666    	; 0x3628 <set_date+0x146>
    38c2:	c2 30       	cpi	r28, 0x02	; 2
    38c4:	d1 05       	cpc	r29, r1
    38c6:	09 f4       	brne	.+2      	; 0x38ca <set_date+0x3e8>
    38c8:	9e ce       	rjmp	.-708    	; 0x3606 <set_date+0x124>
    38ca:	23 97       	sbiw	r28, 0x03	; 3
    38cc:	09 f4       	brne	.+2      	; 0x38d0 <set_date+0x3ee>
    38ce:	a9 ce       	rjmp	.-686    	; 0x3622 <set_date+0x140>
    38d0:	ab ce       	rjmp	.-682    	; 0x3628 <set_date+0x146>
				print_symbol(8, HERZ_KLEIN_WIDTH, herzKleinSymb,  get_yearXPos() + get_yearWidth() / 2 - 4, YPOS_YEAR - 10);
				break;
			}
			default: break;
		}
		update_LCD();
    38d2:	0e 94 2a 08 	call	0x1054	; 0x1054 <update_LCD>
    38d6:	49 ce       	rjmp	.-878    	; 0x356a <set_date+0x88>
	}
}
    38d8:	df 91       	pop	r29
    38da:	cf 91       	pop	r28
    38dc:	1f 91       	pop	r17
    38de:	0f 91       	pop	r16
    38e0:	ff 90       	pop	r15
    38e2:	ef 90       	pop	r14
    38e4:	df 90       	pop	r13
    38e6:	cf 90       	pop	r12
    38e8:	bf 90       	pop	r11
    38ea:	af 90       	pop	r10
    38ec:	08 95       	ret

000038ee <set_audio>:
		}
	}
}


void set_audio(){
    38ee:	cf 92       	push	r12
    38f0:	df 92       	push	r13
    38f2:	ef 92       	push	r14
    38f4:	ff 92       	push	r15
    38f6:	0f 93       	push	r16
    38f8:	1f 93       	push	r17
    38fa:	cf 93       	push	r28
    38fc:	df 93       	push	r29
    38fe:	cd b7       	in	r28, 0x3d	; 61
    3900:	de b7       	in	r29, 0x3e	; 62
    3902:	c5 57       	subi	r28, 0x75	; 117
    3904:	d1 09       	sbc	r29, r1
    3906:	0f b6       	in	r0, 0x3f	; 63
    3908:	f8 94       	cli
    390a:	de bf       	out	0x3e, r29	; 62
    390c:	0f be       	out	0x3f, r0	; 63
    390e:	cd bf       	out	0x3d, r28	; 61
	btn_drehenc_pushed = false;
    3910:	10 92 6e 01 	sts	0x016E, r1
	int item = 0;
	clear_pixelMatrix();
    3914:	0e 94 6b 0d 	call	0x1ad6	; 0x1ad6 <clear_pixelMatrix>
	clear_LCD();
    3918:	0e 94 c8 07 	call	0xf90	; 0xf90 <clear_LCD>
	print_symbol(16,17, hakenSymb,108,46);
    391c:	0e e2       	ldi	r16, 0x2E	; 46
    391e:	10 e0       	ldi	r17, 0x00	; 0
    3920:	2c e6       	ldi	r18, 0x6C	; 108
    3922:	30 e0       	ldi	r19, 0x00	; 0
    3924:	44 e8       	ldi	r20, 0x84	; 132
    3926:	51 e0       	ldi	r21, 0x01	; 1
    3928:	61 e1       	ldi	r22, 0x11	; 17
    392a:	70 e0       	ldi	r23, 0x00	; 0
    392c:	80 e1       	ldi	r24, 0x10	; 16
    392e:	90 e0       	ldi	r25, 0x00	; 0
    3930:	0e 94 59 08 	call	0x10b2	; 0x10b2 <print_symbol>
	int warte_ASCII [strlen("Bitte warten")];
	convertString("Bitte warten", warte_ASCII);
    3934:	be 01       	movw	r22, r28
    3936:	6f 5f       	subi	r22, 0xFF	; 255
    3938:	7f 4f       	sbci	r23, 0xFF	; 255
    393a:	88 e1       	ldi	r24, 0x18	; 24
    393c:	91 e0       	ldi	r25, 0x01	; 1
    393e:	0e 94 23 11 	call	0x2246	; 0x2246 <convertString>
	print_ASCIIString(20,16, warte_ASCII, sizeof(warte_ASCII)/sizeof(warte_ASCII[0]));
    3942:	2c e0       	ldi	r18, 0x0C	; 12
    3944:	30 e0       	ldi	r19, 0x00	; 0
    3946:	ae 01       	movw	r20, r28
    3948:	4f 5f       	subi	r20, 0xFF	; 255
    394a:	5f 4f       	sbci	r21, 0xFF	; 255
    394c:	60 e1       	ldi	r22, 0x10	; 16
    394e:	70 e0       	ldi	r23, 0x00	; 0
    3950:	84 e1       	ldi	r24, 0x14	; 20
    3952:	90 e0       	ldi	r25, 0x00	; 0
    3954:	0e 94 2b 0d 	call	0x1a56	; 0x1a56 <print_ASCIIString>
	update_LCD();
    3958:	0e 94 2a 08 	call	0x1054	; 0x1054 <update_LCD>
	mp3Player_onoff();//On
    395c:	0e 94 f0 0a 	call	0x15e0	; 0x15e0 <mp3Player_onoff>
	play_pause();
    3960:	0e 94 22 0b 	call	0x1644	; 0x1644 <play_pause>
    3964:	2f ef       	ldi	r18, 0xFF	; 255
    3966:	89 e6       	ldi	r24, 0x69	; 105
    3968:	98 e1       	ldi	r25, 0x18	; 24
    396a:	21 50       	subi	r18, 0x01	; 1
    396c:	80 40       	sbci	r24, 0x00	; 0
    396e:	90 40       	sbci	r25, 0x00	; 0
    3970:	e1 f7       	brne	.-8      	; 0x396a <set_audio+0x7c>
    3972:	00 c0       	rjmp	.+0      	; 0x3974 <set_audio+0x86>
    3974:	00 00       	nop
	_delay_ms(1000);
	boot_amp();
    3976:	0e 94 d2 0a 	call	0x15a4	; 0x15a4 <boot_amp>
    397a:	e0 e9       	ldi	r30, 0x90	; 144
    397c:	fd e0       	ldi	r31, 0x0D	; 13
    397e:	de 01       	movw	r26, r28
    3980:	59 96       	adiw	r26, 0x19	; 25
    3982:	9e 01       	movw	r18, r28
    3984:	2a 58       	subi	r18, 0x8A	; 138
    3986:	3f 4f       	sbci	r19, 0xFF	; 255
	//Speaker-Symbol aus EEPROM holen
	uint8_t speakerSymb[SPEAKER_WIDTH];
	for(int i=0; i<SPEAKER_WIDTH; i++){
		speakerSymb[i] = pgm_read_byte(&speaker[0][i]);
    3988:	84 91       	lpm	r24, Z
    398a:	8d 93       	st	X+, r24
    398c:	31 96       	adiw	r30, 0x01	; 1
	play_pause();
	_delay_ms(1000);
	boot_amp();
	//Speaker-Symbol aus EEPROM holen
	uint8_t speakerSymb[SPEAKER_WIDTH];
	for(int i=0; i<SPEAKER_WIDTH; i++){
    398e:	a2 17       	cp	r26, r18
    3990:	b3 07       	cpc	r27, r19
    3992:	d1 f7       	brne	.-12     	; 0x3988 <set_audio+0x9a>
		speakerSymb[i] = pgm_read_byte(&speaker[0][i]);
	}
	clear_pixelMatrix();
    3994:	0e 94 6b 0d 	call	0x1ad6	; 0x1ad6 <clear_pixelMatrix>
	clear_LCD();
    3998:	0e 94 c8 07 	call	0xf90	; 0xf90 <clear_LCD>
	print_symbol(16,17, hakenSymb,108,46);
    399c:	0e e2       	ldi	r16, 0x2E	; 46
    399e:	10 e0       	ldi	r17, 0x00	; 0
    39a0:	2c e6       	ldi	r18, 0x6C	; 108
    39a2:	30 e0       	ldi	r19, 0x00	; 0
    39a4:	44 e8       	ldi	r20, 0x84	; 132
    39a6:	51 e0       	ldi	r21, 0x01	; 1
    39a8:	61 e1       	ldi	r22, 0x11	; 17
    39aa:	70 e0       	ldi	r23, 0x00	; 0
    39ac:	80 e1       	ldi	r24, 0x10	; 16
    39ae:	90 e0       	ldi	r25, 0x00	; 0
    39b0:	0e 94 59 08 	call	0x10b2	; 0x10b2 <print_symbol>
	print_symbol(24,31,speakerSymb,(128-31)/2,(64-24)/2);
    39b4:	04 e1       	ldi	r16, 0x14	; 20
    39b6:	10 e0       	ldi	r17, 0x00	; 0
    39b8:	20 e3       	ldi	r18, 0x30	; 48
    39ba:	30 e0       	ldi	r19, 0x00	; 0
    39bc:	ae 01       	movw	r20, r28
    39be:	47 5e       	subi	r20, 0xE7	; 231
    39c0:	5f 4f       	sbci	r21, 0xFF	; 255
    39c2:	6f e1       	ldi	r22, 0x1F	; 31
    39c4:	70 e0       	ldi	r23, 0x00	; 0
    39c6:	88 e1       	ldi	r24, 0x18	; 24
    39c8:	90 e0       	ldi	r25, 0x00	; 0
    39ca:	0e 94 59 08 	call	0x10b2	; 0x10b2 <print_symbol>
}


void set_audio(){
	btn_drehenc_pushed = false;
	int item = 0;
    39ce:	e1 2c       	mov	r14, r1
    39d0:	f1 2c       	mov	r15, r1
				//ggf. offenes Herz entfernen
				for(int x = 64-HERZ_KLEIN_WIDTH/2; x<64-HERZ_KLEIN_WIDTH/2+2; x++){
					for(int y = 2; y<11; y++)		
						reset_pixel(x,y);
				}
				print_symbol(8,HERZ_KLEIN_WIDTH,herzKleinSymb,64-4, 2);//kleines Herz ber Speaker malen
    39d2:	68 94       	set
    39d4:	cc 24       	eor	r12, r12
    39d6:	c1 f8       	bld	r12, 1
    39d8:	dc 2c       	mov	r13, r12
    39da:	ac c0       	rjmp	.+344    	; 0x3b34 <set_audio+0x246>
	print_symbol(16,17, hakenSymb,108,46);
	print_symbol(24,31,speakerSymb,(128-31)/2,(64-24)/2);
	while(item!=1){
		while(!btn_drehenc_pushed){
			
			item+=rotary;
    39dc:	80 91 6f 01 	lds	r24, 0x016F
    39e0:	90 91 70 01 	lds	r25, 0x0170
    39e4:	e8 0e       	add	r14, r24
    39e6:	f9 1e       	adc	r15, r25
			item=item%2;
    39e8:	c7 01       	movw	r24, r14
    39ea:	81 70       	andi	r24, 0x01	; 1
    39ec:	90 78       	andi	r25, 0x80	; 128
    39ee:	99 23       	and	r25, r25
    39f0:	24 f4       	brge	.+8      	; 0x39fa <set_audio+0x10c>
    39f2:	01 97       	sbiw	r24, 0x01	; 1
    39f4:	8e 6f       	ori	r24, 0xFE	; 254
    39f6:	9f 6f       	ori	r25, 0xFF	; 255
    39f8:	01 96       	adiw	r24, 0x01	; 1
    39fa:	7c 01       	movw	r14, r24
			if(item<0)
    39fc:	99 23       	and	r25, r25
    39fe:	0c f0       	brlt	.+2      	; 0x3a02 <set_audio+0x114>
    3a00:	b4 c0       	rjmp	.+360    	; 0x3b6a <set_audio+0x27c>
			item+=2;
    3a02:	22 e0       	ldi	r18, 0x02	; 2
    3a04:	e2 0e       	add	r14, r18
    3a06:	f1 1c       	adc	r15, r1
    3a08:	b0 c0       	rjmp	.+352    	; 0x3b6a <set_audio+0x27c>
			rotary = 0;
			if(item == 0){
				//ggf. offenes Herz entfernen
				for(int x = 64-HERZ_KLEIN_WIDTH/2; x<64-HERZ_KLEIN_WIDTH/2+2; x++){
					for(int y = 2; y<11; y++)		
						reset_pixel(x,y);
    3a0a:	61 2f       	mov	r22, r17
    3a0c:	8c e3       	ldi	r24, 0x3C	; 60
    3a0e:	0e 94 06 08 	call	0x100c	; 0x100c <reset_pixel>
    3a12:	1f 5f       	subi	r17, 0xFF	; 255
			item+=2;
			rotary = 0;
			if(item == 0){
				//ggf. offenes Herz entfernen
				for(int x = 64-HERZ_KLEIN_WIDTH/2; x<64-HERZ_KLEIN_WIDTH/2+2; x++){
					for(int y = 2; y<11; y++)		
    3a14:	1b 30       	cpi	r17, 0x0B	; 11
    3a16:	c9 f7       	brne	.-14     	; 0x3a0a <set_audio+0x11c>
						reset_pixel(x,y);
				}
				print_symbol(8,HERZ_KLEIN_WIDTH,herzKleinSymb,64-4, 2);//kleines Herz ber Speaker malen
    3a18:	02 e0       	ldi	r16, 0x02	; 2
    3a1a:	10 e0       	ldi	r17, 0x00	; 0
    3a1c:	2c e3       	ldi	r18, 0x3C	; 60
    3a1e:	30 e0       	ldi	r19, 0x00	; 0
    3a20:	42 ed       	ldi	r20, 0xD2	; 210
    3a22:	51 e0       	ldi	r21, 0x01	; 1
    3a24:	6a e0       	ldi	r22, 0x0A	; 10
    3a26:	70 e0       	ldi	r23, 0x00	; 0
    3a28:	88 e0       	ldi	r24, 0x08	; 8
    3a2a:	90 e0       	ldi	r25, 0x00	; 0
    3a2c:	0e 94 59 08 	call	0x10b2	; 0x10b2 <print_symbol>
    3a30:	0c e5       	ldi	r16, 0x5C	; 92
    3a32:	0a c0       	rjmp	.+20     	; 0x3a48 <set_audio+0x15a>
				for(int x = 92; x<92+16; x++){//Groes Herz am Haken entfernen
					for(int y = 2+3*15; y<64; y++)
					reset_pixel(x,y);
    3a34:	61 2f       	mov	r22, r17
    3a36:	80 2f       	mov	r24, r16
    3a38:	0e 94 06 08 	call	0x100c	; 0x100c <reset_pixel>
    3a3c:	1f 5f       	subi	r17, 0xFF	; 255
					for(int y = 2; y<11; y++)		
						reset_pixel(x,y);
				}
				print_symbol(8,HERZ_KLEIN_WIDTH,herzKleinSymb,64-4, 2);//kleines Herz ber Speaker malen
				for(int x = 92; x<92+16; x++){//Groes Herz am Haken entfernen
					for(int y = 2+3*15; y<64; y++)
    3a3e:	10 34       	cpi	r17, 0x40	; 64
    3a40:	c9 f7       	brne	.-14     	; 0x3a34 <set_audio+0x146>
    3a42:	0f 5f       	subi	r16, 0xFF	; 255
				for(int x = 64-HERZ_KLEIN_WIDTH/2; x<64-HERZ_KLEIN_WIDTH/2+2; x++){
					for(int y = 2; y<11; y++)		
						reset_pixel(x,y);
				}
				print_symbol(8,HERZ_KLEIN_WIDTH,herzKleinSymb,64-4, 2);//kleines Herz ber Speaker malen
				for(int x = 92; x<92+16; x++){//Groes Herz am Haken entfernen
    3a44:	0c 36       	cpi	r16, 0x6C	; 108
    3a46:	e1 f0       	breq	.+56     	; 0x3a80 <set_audio+0x192>
			item+=2;
			rotary = 0;
			if(item == 0){
				//ggf. offenes Herz entfernen
				for(int x = 64-HERZ_KLEIN_WIDTH/2; x<64-HERZ_KLEIN_WIDTH/2+2; x++){
					for(int y = 2; y<11; y++)		
    3a48:	1f e2       	ldi	r17, 0x2F	; 47
    3a4a:	f4 cf       	rjmp	.-24     	; 0x3a34 <set_audio+0x146>
				for(int x = 92; x<92+16; x++){//Groes Herz am Haken entfernen
					for(int y = 2+3*15; y<64; y++)
					reset_pixel(x,y);
				}
				} else {
				print_symbol(16,16, herzSymb, 92, 2+3*15);//Groes Herz am Haken malen
    3a4c:	0f e2       	ldi	r16, 0x2F	; 47
    3a4e:	10 e0       	ldi	r17, 0x00	; 0
    3a50:	2c e5       	ldi	r18, 0x5C	; 92
    3a52:	30 e0       	ldi	r19, 0x00	; 0
    3a54:	46 ea       	ldi	r20, 0xA6	; 166
    3a56:	51 e0       	ldi	r21, 0x01	; 1
    3a58:	60 e1       	ldi	r22, 0x10	; 16
    3a5a:	70 e0       	ldi	r23, 0x00	; 0
    3a5c:	80 e1       	ldi	r24, 0x10	; 16
    3a5e:	90 e0       	ldi	r25, 0x00	; 0
    3a60:	0e 94 59 08 	call	0x10b2	; 0x10b2 <print_symbol>
    3a64:	08 e3       	ldi	r16, 0x38	; 56
    3a66:	0a c0       	rjmp	.+20     	; 0x3a7c <set_audio+0x18e>
				for(int x = 64-8; x<64+8; x++){//kleines Herz ber Speaker entfernen
					for(int y = 2; y<11; y++)
					reset_pixel(x,y);
    3a68:	61 2f       	mov	r22, r17
    3a6a:	80 2f       	mov	r24, r16
    3a6c:	0e 94 06 08 	call	0x100c	; 0x100c <reset_pixel>
    3a70:	1f 5f       	subi	r17, 0xFF	; 255
					reset_pixel(x,y);
				}
				} else {
				print_symbol(16,16, herzSymb, 92, 2+3*15);//Groes Herz am Haken malen
				for(int x = 64-8; x<64+8; x++){//kleines Herz ber Speaker entfernen
					for(int y = 2; y<11; y++)
    3a72:	1b 30       	cpi	r17, 0x0B	; 11
    3a74:	c9 f7       	brne	.-14     	; 0x3a68 <set_audio+0x17a>
    3a76:	0f 5f       	subi	r16, 0xFF	; 255
					for(int y = 2+3*15; y<64; y++)
					reset_pixel(x,y);
				}
				} else {
				print_symbol(16,16, herzSymb, 92, 2+3*15);//Groes Herz am Haken malen
				for(int x = 64-8; x<64+8; x++){//kleines Herz ber Speaker entfernen
    3a78:	08 34       	cpi	r16, 0x48	; 72
    3a7a:	11 f0       	breq	.+4      	; 0x3a80 <set_audio+0x192>
				//ggf. offenes Herz entfernen
				for(int x = 64-HERZ_KLEIN_WIDTH/2; x<64-HERZ_KLEIN_WIDTH/2+2; x++){
					for(int y = 2; y<11; y++)		
						reset_pixel(x,y);
				}
				print_symbol(8,HERZ_KLEIN_WIDTH,herzKleinSymb,64-4, 2);//kleines Herz ber Speaker malen
    3a7c:	1d 2d       	mov	r17, r13
    3a7e:	f4 cf       	rjmp	.-24     	; 0x3a68 <set_audio+0x17a>
				for(int x = 64-8; x<64+8; x++){//kleines Herz ber Speaker entfernen
					for(int y = 2; y<11; y++)
					reset_pixel(x,y);
				}
			}
			update_LCD();
    3a80:	0e 94 2a 08 	call	0x1054	; 0x1054 <update_LCD>
			goodNight();
    3a84:	0e 94 4c 14 	call	0x2898	; 0x2898 <goodNight>
			check_light();
    3a88:	0e 94 39 13 	call	0x2672	; 0x2672 <check_light>
	clear_pixelMatrix();
	clear_LCD();
	print_symbol(16,17, hakenSymb,108,46);
	print_symbol(24,31,speakerSymb,(128-31)/2,(64-24)/2);
	while(item!=1){
		while(!btn_drehenc_pushed){
    3a8c:	80 91 6e 01 	lds	r24, 0x016E
    3a90:	88 23       	and	r24, r24
    3a92:	09 f4       	brne	.+2      	; 0x3a96 <set_audio+0x1a8>
    3a94:	a3 cf       	rjmp	.-186    	; 0x39dc <set_audio+0xee>
			}
			update_LCD();
			goodNight();
			check_light();
		}
		btn_drehenc_pushed = false;
    3a96:	10 92 6e 01 	sts	0x016E, r1
    3a9a:	08 e3       	ldi	r16, 0x38	; 56
    3a9c:	0a c0       	rjmp	.+20     	; 0x3ab2 <set_audio+0x1c4>
		for(int x = 64-8; x<64+8; x++){
			for(int y = 2; y<11; y++)
			reset_pixel(x,y);
    3a9e:	61 2f       	mov	r22, r17
    3aa0:	80 2f       	mov	r24, r16
    3aa2:	0e 94 06 08 	call	0x100c	; 0x100c <reset_pixel>
    3aa6:	1f 5f       	subi	r17, 0xFF	; 255
			goodNight();
			check_light();
		}
		btn_drehenc_pushed = false;
		for(int x = 64-8; x<64+8; x++){
			for(int y = 2; y<11; y++)
    3aa8:	1b 30       	cpi	r17, 0x0B	; 11
    3aaa:	c9 f7       	brne	.-14     	; 0x3a9e <set_audio+0x1b0>
    3aac:	0f 5f       	subi	r16, 0xFF	; 255
			update_LCD();
			goodNight();
			check_light();
		}
		btn_drehenc_pushed = false;
		for(int x = 64-8; x<64+8; x++){
    3aae:	08 34       	cpi	r16, 0x48	; 72
    3ab0:	11 f0       	breq	.+4      	; 0x3ab6 <set_audio+0x1c8>
				for(int x = 92; x<92+16; x++){//Groes Herz am Haken entfernen
					for(int y = 2+3*15; y<64; y++)
					reset_pixel(x,y);
				}
				} else {
				print_symbol(16,16, herzSymb, 92, 2+3*15);//Groes Herz am Haken malen
    3ab2:	1c 2d       	mov	r17, r12
    3ab4:	f4 cf       	rjmp	.-24     	; 0x3a9e <set_audio+0x1b0>
		btn_drehenc_pushed = false;
		for(int x = 64-8; x<64+8; x++){
			for(int y = 2; y<11; y++)
			reset_pixel(x,y);
		}
		if(item==0){
    3ab6:	e1 14       	cp	r14, r1
    3ab8:	f1 04       	cpc	r15, r1
    3aba:	c1 f5       	brne	.+112    	; 0x3b2c <set_audio+0x23e>
			print_symbol(8,HERZ_KLEIN_WIDTH,herzKleinOffenSymb,64-HERZ_KLEIN_WIDTH/2, 2);
    3abc:	02 e0       	ldi	r16, 0x02	; 2
    3abe:	10 e0       	ldi	r17, 0x00	; 0
    3ac0:	2b e3       	ldi	r18, 0x3B	; 59
    3ac2:	30 e0       	ldi	r19, 0x00	; 0
    3ac4:	46 ec       	ldi	r20, 0xC6	; 198
    3ac6:	51 e0       	ldi	r21, 0x01	; 1
    3ac8:	6a e0       	ldi	r22, 0x0A	; 10
    3aca:	70 e0       	ldi	r23, 0x00	; 0
    3acc:	88 e0       	ldi	r24, 0x08	; 8
    3ace:	90 e0       	ldi	r25, 0x00	; 0
    3ad0:	0e 94 59 08 	call	0x10b2	; 0x10b2 <print_symbol>
			update_LCD();
    3ad4:	0e 94 2a 08 	call	0x1054	; 0x1054 <update_LCD>
			btn_drehenc_pushed = false;
    3ad8:	10 92 6e 01 	sts	0x016E, r1
			while(!btn_drehenc_pushed){
    3adc:	80 91 6e 01 	lds	r24, 0x016E
    3ae0:	81 11       	cpse	r24, r1
    3ae2:	21 c0       	rjmp	.+66     	; 0x3b26 <set_audio+0x238>
				goodNight();
    3ae4:	0e 94 4c 14 	call	0x2898	; 0x2898 <goodNight>
				if(rotary>0){
    3ae8:	80 91 6f 01 	lds	r24, 0x016F
    3aec:	90 91 70 01 	lds	r25, 0x0170
    3af0:	18 16       	cp	r1, r24
    3af2:	19 06       	cpc	r1, r25
    3af4:	44 f4       	brge	.+16     	; 0x3b06 <set_audio+0x218>
					volume(UP);
    3af6:	81 e0       	ldi	r24, 0x01	; 1
    3af8:	0e 94 3b 0b 	call	0x1676	; 0x1676 <volume>
					rotary = 0;
    3afc:	10 92 70 01 	sts	0x0170, r1
    3b00:	10 92 6f 01 	sts	0x016F, r1
    3b04:	0a c0       	rjmp	.+20     	; 0x3b1a <set_audio+0x22c>
				} else {
					volume(DOWN);
    3b06:	80 e0       	ldi	r24, 0x00	; 0
    3b08:	0e 94 3b 0b 	call	0x1676	; 0x1676 <volume>
					btn_light_pushed = true; //DEBUG
    3b0c:	81 e0       	ldi	r24, 0x01	; 1
    3b0e:	80 93 6d 01 	sts	0x016D, r24
					rotary = 0;
    3b12:	10 92 70 01 	sts	0x0170, r1
    3b16:	10 92 6f 01 	sts	0x016F, r1
				}
				check_light();
    3b1a:	0e 94 39 13 	call	0x2672	; 0x2672 <check_light>
		}
		if(item==0){
			print_symbol(8,HERZ_KLEIN_WIDTH,herzKleinOffenSymb,64-HERZ_KLEIN_WIDTH/2, 2);
			update_LCD();
			btn_drehenc_pushed = false;
			while(!btn_drehenc_pushed){
    3b1e:	80 91 6e 01 	lds	r24, 0x016E
    3b22:	88 23       	and	r24, r24
    3b24:	f9 f2       	breq	.-66     	; 0x3ae4 <set_audio+0x1f6>
					btn_light_pushed = true; //DEBUG
					rotary = 0;
				}
				check_light();
			}
			btn_drehenc_pushed = false;
    3b26:	10 92 6e 01 	sts	0x016E, r1
    3b2a:	04 c0       	rjmp	.+8      	; 0x3b34 <set_audio+0x246>
	}
	clear_pixelMatrix();
	clear_LCD();
	print_symbol(16,17, hakenSymb,108,46);
	print_symbol(24,31,speakerSymb,(128-31)/2,(64-24)/2);
	while(item!=1){
    3b2c:	81 e0       	ldi	r24, 0x01	; 1
    3b2e:	e8 16       	cp	r14, r24
    3b30:	f1 04       	cpc	r15, r1
    3b32:	29 f0       	breq	.+10     	; 0x3b3e <set_audio+0x250>
		while(!btn_drehenc_pushed){
    3b34:	80 91 6e 01 	lds	r24, 0x016E
    3b38:	81 11       	cpse	r24, r1
    3b3a:	ad cf       	rjmp	.-166    	; 0x3a96 <set_audio+0x1a8>
    3b3c:	4f cf       	rjmp	.-354    	; 0x39dc <set_audio+0xee>
				check_light();
			}
			btn_drehenc_pushed = false;
		}
	}
	clear_pixelMatrix();
    3b3e:	0e 94 6b 0d 	call	0x1ad6	; 0x1ad6 <clear_pixelMatrix>
	clear_LCD();
    3b42:	0e 94 c8 07 	call	0xf90	; 0xf90 <clear_LCD>
	print_ASCIIString(20,16, warte_ASCII, sizeof(warte_ASCII)/sizeof(warte_ASCII[0]));
    3b46:	2c e0       	ldi	r18, 0x0C	; 12
    3b48:	30 e0       	ldi	r19, 0x00	; 0
    3b4a:	ae 01       	movw	r20, r28
    3b4c:	4f 5f       	subi	r20, 0xFF	; 255
    3b4e:	5f 4f       	sbci	r21, 0xFF	; 255
    3b50:	60 e1       	ldi	r22, 0x10	; 16
    3b52:	70 e0       	ldi	r23, 0x00	; 0
    3b54:	84 e1       	ldi	r24, 0x14	; 20
    3b56:	90 e0       	ldi	r25, 0x00	; 0
    3b58:	0e 94 2b 0d 	call	0x1a56	; 0x1a56 <print_ASCIIString>
	update_LCD();
    3b5c:	0e 94 2a 08 	call	0x1054	; 0x1054 <update_LCD>
	shutdown_amp();
    3b60:	0e 94 e2 0a 	call	0x15c4	; 0x15c4 <shutdown_amp>
	mp3Player_onoff();
    3b64:	0e 94 f0 0a 	call	0x15e0	; 0x15e0 <mp3Player_onoff>
    3b68:	12 c0       	rjmp	.+36     	; 0x3b8e <set_audio+0x2a0>
			
			item+=rotary;
			item=item%2;
			if(item<0)
			item+=2;
			rotary = 0;
    3b6a:	10 92 70 01 	sts	0x0170, r1
    3b6e:	10 92 6f 01 	sts	0x016F, r1
			if(item == 0){
    3b72:	e1 14       	cp	r14, r1
    3b74:	f1 04       	cpc	r15, r1
    3b76:	09 f0       	breq	.+2      	; 0x3b7a <set_audio+0x28c>
    3b78:	69 cf       	rjmp	.-302    	; 0x3a4c <set_audio+0x15e>
    3b7a:	1c 2d       	mov	r17, r12
				//ggf. offenes Herz entfernen
				for(int x = 64-HERZ_KLEIN_WIDTH/2; x<64-HERZ_KLEIN_WIDTH/2+2; x++){
					for(int y = 2; y<11; y++)		
						reset_pixel(x,y);
    3b7c:	61 2f       	mov	r22, r17
    3b7e:	8b e3       	ldi	r24, 0x3B	; 59
    3b80:	0e 94 06 08 	call	0x100c	; 0x100c <reset_pixel>
    3b84:	1f 5f       	subi	r17, 0xFF	; 255
			item+=2;
			rotary = 0;
			if(item == 0){
				//ggf. offenes Herz entfernen
				for(int x = 64-HERZ_KLEIN_WIDTH/2; x<64-HERZ_KLEIN_WIDTH/2+2; x++){
					for(int y = 2; y<11; y++)		
    3b86:	1b 30       	cpi	r17, 0x0B	; 11
    3b88:	c9 f7       	brne	.-14     	; 0x3b7c <set_audio+0x28e>
    3b8a:	1c 2d       	mov	r17, r12
    3b8c:	3e cf       	rjmp	.-388    	; 0x3a0a <set_audio+0x11c>
	clear_LCD();
	print_ASCIIString(20,16, warte_ASCII, sizeof(warte_ASCII)/sizeof(warte_ASCII[0]));
	update_LCD();
	shutdown_amp();
	mp3Player_onoff();
}
    3b8e:	cb 58       	subi	r28, 0x8B	; 139
    3b90:	df 4f       	sbci	r29, 0xFF	; 255
    3b92:	0f b6       	in	r0, 0x3f	; 63
    3b94:	f8 94       	cli
    3b96:	de bf       	out	0x3e, r29	; 62
    3b98:	0f be       	out	0x3f, r0	; 63
    3b9a:	cd bf       	out	0x3d, r28	; 61
    3b9c:	df 91       	pop	r29
    3b9e:	cf 91       	pop	r28
    3ba0:	1f 91       	pop	r17
    3ba2:	0f 91       	pop	r16
    3ba4:	ff 90       	pop	r15
    3ba6:	ef 90       	pop	r14
    3ba8:	df 90       	pop	r13
    3baa:	cf 90       	pop	r12
    3bac:	08 95       	ret

00003bae <boombox>:

void boombox(){
    3bae:	0f 93       	push	r16
    3bb0:	1f 93       	push	r17
    3bb2:	cf 93       	push	r28
    3bb4:	df 93       	push	r29
    3bb6:	cd b7       	in	r28, 0x3d	; 61
    3bb8:	de b7       	in	r29, 0x3e	; 62
    3bba:	c8 54       	subi	r28, 0x48	; 72
    3bbc:	d1 09       	sbc	r29, r1
    3bbe:	0f b6       	in	r0, 0x3f	; 63
    3bc0:	f8 94       	cli
    3bc2:	de bf       	out	0x3e, r29	; 62
    3bc4:	0f be       	out	0x3f, r0	; 63
    3bc6:	cd bf       	out	0x3d, r28	; 61
	boot_amp();
    3bc8:	0e 94 d2 0a 	call	0x15a4	; 0x15a4 <boot_amp>
	clear_LCD();
    3bcc:	0e 94 c8 07 	call	0xf90	; 0xf90 <clear_LCD>
	clear_pixelMatrix();
    3bd0:	0e 94 6b 0d 	call	0x1ad6	; 0x1ad6 <clear_pixelMatrix>
    3bd4:	ed e9       	ldi	r30, 0x9D	; 157
    3bd6:	fe e0       	ldi	r31, 0x0E	; 14
    3bd8:	de 01       	movw	r26, r28
    3bda:	11 96       	adiw	r26, 0x01	; 1
    3bdc:	9e 01       	movw	r18, r28
    3bde:	27 5b       	subi	r18, 0xB7	; 183
    3be0:	3f 4f       	sbci	r19, 0xFF	; 255
	uint8_t weckerSymb[72];
	for(int i=0; i<72; i++){
		weckerSymb[i] = pgm_read_byte(&note[0][i]);
    3be2:	84 91       	lpm	r24, Z
    3be4:	8d 93       	st	X+, r24
    3be6:	31 96       	adiw	r30, 0x01	; 1
void boombox(){
	boot_amp();
	clear_LCD();
	clear_pixelMatrix();
	uint8_t weckerSymb[72];
	for(int i=0; i<72; i++){
    3be8:	a2 17       	cp	r26, r18
    3bea:	b3 07       	cpc	r27, r19
    3bec:	d1 f7       	brne	.-12     	; 0x3be2 <boombox+0x34>
		weckerSymb[i] = pgm_read_byte(&note[0][i]);
	}
	print_symbol(16,9,weckerSymb,55,24);
    3bee:	08 e1       	ldi	r16, 0x18	; 24
    3bf0:	10 e0       	ldi	r17, 0x00	; 0
    3bf2:	27 e3       	ldi	r18, 0x37	; 55
    3bf4:	30 e0       	ldi	r19, 0x00	; 0
    3bf6:	ae 01       	movw	r20, r28
    3bf8:	4f 5f       	subi	r20, 0xFF	; 255
    3bfa:	5f 4f       	sbci	r21, 0xFF	; 255
    3bfc:	69 e0       	ldi	r22, 0x09	; 9
    3bfe:	70 e0       	ldi	r23, 0x00	; 0
    3c00:	80 e1       	ldi	r24, 0x10	; 16
    3c02:	90 e0       	ldi	r25, 0x00	; 0
    3c04:	0e 94 59 08 	call	0x10b2	; 0x10b2 <print_symbol>
	print_symbol(16,17, hakenSymb,108,46);
    3c08:	0e e2       	ldi	r16, 0x2E	; 46
    3c0a:	10 e0       	ldi	r17, 0x00	; 0
    3c0c:	2c e6       	ldi	r18, 0x6C	; 108
    3c0e:	30 e0       	ldi	r19, 0x00	; 0
    3c10:	44 e8       	ldi	r20, 0x84	; 132
    3c12:	51 e0       	ldi	r21, 0x01	; 1
    3c14:	61 e1       	ldi	r22, 0x11	; 17
    3c16:	70 e0       	ldi	r23, 0x00	; 0
    3c18:	80 e1       	ldi	r24, 0x10	; 16
    3c1a:	90 e0       	ldi	r25, 0x00	; 0
    3c1c:	0e 94 59 08 	call	0x10b2	; 0x10b2 <print_symbol>
	print_symbol(16,16, herzSymb, 92, 2+3*15);
    3c20:	0f e2       	ldi	r16, 0x2F	; 47
    3c22:	10 e0       	ldi	r17, 0x00	; 0
    3c24:	2c e5       	ldi	r18, 0x5C	; 92
    3c26:	30 e0       	ldi	r19, 0x00	; 0
    3c28:	46 ea       	ldi	r20, 0xA6	; 166
    3c2a:	51 e0       	ldi	r21, 0x01	; 1
    3c2c:	60 e1       	ldi	r22, 0x10	; 16
    3c2e:	70 e0       	ldi	r23, 0x00	; 0
    3c30:	80 e1       	ldi	r24, 0x10	; 16
    3c32:	90 e0       	ldi	r25, 0x00	; 0
    3c34:	0e 94 59 08 	call	0x10b2	; 0x10b2 <print_symbol>
	update_LCD();
    3c38:	0e 94 2a 08 	call	0x1054	; 0x1054 <update_LCD>
	while(!btn_drehenc_pushed){
    3c3c:	80 91 6e 01 	lds	r24, 0x016E
    3c40:	81 11       	cpse	r24, r1
    3c42:	08 c0       	rjmp	.+16     	; 0x3c54 <boombox+0xa6>
		goodNight();
    3c44:	0e 94 4c 14 	call	0x2898	; 0x2898 <goodNight>
		check_light();
    3c48:	0e 94 39 13 	call	0x2672	; 0x2672 <check_light>
	}
	print_symbol(16,9,weckerSymb,55,24);
	print_symbol(16,17, hakenSymb,108,46);
	print_symbol(16,16, herzSymb, 92, 2+3*15);
	update_LCD();
	while(!btn_drehenc_pushed){
    3c4c:	80 91 6e 01 	lds	r24, 0x016E
    3c50:	88 23       	and	r24, r24
    3c52:	c1 f3       	breq	.-16     	; 0x3c44 <boombox+0x96>
		goodNight();
		check_light();
	}
	shutdown_amp();
    3c54:	0e 94 e2 0a 	call	0x15c4	; 0x15c4 <shutdown_amp>
}
    3c58:	c8 5b       	subi	r28, 0xB8	; 184
    3c5a:	df 4f       	sbci	r29, 0xFF	; 255
    3c5c:	0f b6       	in	r0, 0x3f	; 63
    3c5e:	f8 94       	cli
    3c60:	de bf       	out	0x3e, r29	; 62
    3c62:	0f be       	out	0x3f, r0	; 63
    3c64:	cd bf       	out	0x3d, r28	; 61
    3c66:	df 91       	pop	r29
    3c68:	cf 91       	pop	r28
    3c6a:	1f 91       	pop	r17
    3c6c:	0f 91       	pop	r16
    3c6e:	08 95       	ret

00003c70 <printSnoozetime>:

void printSnoozetime(){
    3c70:	ef 92       	push	r14
    3c72:	ff 92       	push	r15
    3c74:	0f 93       	push	r16
    3c76:	1f 93       	push	r17
    3c78:	cf 93       	push	r28
    3c7a:	df 93       	push	r29
	int width = pgm_read_byte(&bigNumberWidth[snoozeDuration%10]);
    3c7c:	20 91 08 01 	lds	r18, 0x0108
    3c80:	30 91 09 01 	lds	r19, 0x0109
    3c84:	c9 01       	movw	r24, r18
    3c86:	6a e0       	ldi	r22, 0x0A	; 10
    3c88:	70 e0       	ldi	r23, 0x00	; 0
    3c8a:	0e 94 6f 22 	call	0x44de	; 0x44de <__divmodhi4>
    3c8e:	fc 01       	movw	r30, r24
    3c90:	e8 56       	subi	r30, 0x68	; 104
    3c92:	fe 4f       	sbci	r31, 0xFE	; 254
    3c94:	e4 91       	lpm	r30, Z
    3c96:	ee 2e       	mov	r14, r30
    3c98:	f1 2c       	mov	r15, r1
	if(snoozeDuration>9){
    3c9a:	2a 30       	cpi	r18, 0x0A	; 10
    3c9c:	31 05       	cpc	r19, r1
    3c9e:	5c f0       	brlt	.+22     	; 0x3cb6 <printSnoozetime+0x46>
		width += pgm_read_byte(&bigNumberWidth[snoozeDuration/10]);
    3ca0:	c9 01       	movw	r24, r18
    3ca2:	6a e0       	ldi	r22, 0x0A	; 10
    3ca4:	70 e0       	ldi	r23, 0x00	; 0
    3ca6:	0e 94 6f 22 	call	0x44de	; 0x44de <__divmodhi4>
    3caa:	fb 01       	movw	r30, r22
    3cac:	e8 56       	subi	r30, 0x68	; 104
    3cae:	fe 4f       	sbci	r31, 0xFE	; 254
    3cb0:	e4 91       	lpm	r30, Z
    3cb2:	ee 0e       	add	r14, r30
    3cb4:	f1 1c       	adc	r15, r1
		check_light();
	}
	shutdown_amp();
}

void printSnoozetime(){
    3cb6:	d0 e0       	ldi	r29, 0x00	; 0
    3cb8:	19 e0       	ldi	r17, 0x09	; 9
    3cba:	0a c0       	rjmp	.+20     	; 0x3cd0 <printSnoozetime+0x60>
	if(snoozeDuration>9){
		width += pgm_read_byte(&bigNumberWidth[snoozeDuration/10]);
	}
	for(int x = 0; x<128; x++){
		for(int y = timeYPos; y<timeYPos + BIG_NUMBER_HEIGHT; y++)
			reset_pixel(x,y);
    3cbc:	6c 2f       	mov	r22, r28
    3cbe:	8d 2f       	mov	r24, r29
    3cc0:	0e 94 06 08 	call	0x100c	; 0x100c <reset_pixel>
    3cc4:	cf 5f       	subi	r28, 0xFF	; 255
	int width = pgm_read_byte(&bigNumberWidth[snoozeDuration%10]);
	if(snoozeDuration>9){
		width += pgm_read_byte(&bigNumberWidth[snoozeDuration/10]);
	}
	for(int x = 0; x<128; x++){
		for(int y = timeYPos; y<timeYPos + BIG_NUMBER_HEIGHT; y++)
    3cc6:	c9 32       	cpi	r28, 0x29	; 41
    3cc8:	c9 f7       	brne	.-14     	; 0x3cbc <printSnoozetime+0x4c>
    3cca:	df 5f       	subi	r29, 0xFF	; 255
void printSnoozetime(){
	int width = pgm_read_byte(&bigNumberWidth[snoozeDuration%10]);
	if(snoozeDuration>9){
		width += pgm_read_byte(&bigNumberWidth[snoozeDuration/10]);
	}
	for(int x = 0; x<128; x++){
    3ccc:	d0 38       	cpi	r29, 0x80	; 128
    3cce:	11 f0       	breq	.+4      	; 0x3cd4 <printSnoozetime+0x64>
		check_light();
	}
	shutdown_amp();
}

void printSnoozetime(){
    3cd0:	c1 2f       	mov	r28, r17
    3cd2:	f4 cf       	rjmp	.-24     	; 0x3cbc <printSnoozetime+0x4c>
	for(int x = 0; x<128; x++){
		for(int y = timeYPos; y<timeYPos + BIG_NUMBER_HEIGHT; y++)
			reset_pixel(x,y);
	}
	
	if(snoozeDuration>9){
    3cd4:	80 91 08 01 	lds	r24, 0x0108
    3cd8:	90 91 09 01 	lds	r25, 0x0109
    3cdc:	8a 30       	cpi	r24, 0x0A	; 10
    3cde:	91 05       	cpc	r25, r1
    3ce0:	5c f1       	brlt	.+86     	; 0x3d38 <printSnoozetime+0xc8>
		print_bigNumber(64-width/2,timeYPos,snoozeDuration/10);
    3ce2:	97 01       	movw	r18, r14
    3ce4:	ff 20       	and	r15, r15
    3ce6:	14 f4       	brge	.+4      	; 0x3cec <printSnoozetime+0x7c>
    3ce8:	2f 5f       	subi	r18, 0xFF	; 255
    3cea:	3f 4f       	sbci	r19, 0xFF	; 255
    3cec:	35 95       	asr	r19
    3cee:	27 95       	ror	r18
    3cf0:	c0 e4       	ldi	r28, 0x40	; 64
    3cf2:	d0 e0       	ldi	r29, 0x00	; 0
    3cf4:	c2 1b       	sub	r28, r18
    3cf6:	d3 0b       	sbc	r29, r19
    3cf8:	0a e0       	ldi	r16, 0x0A	; 10
    3cfa:	10 e0       	ldi	r17, 0x00	; 0
    3cfc:	b8 01       	movw	r22, r16
    3cfe:	0e 94 6f 22 	call	0x44de	; 0x44de <__divmodhi4>
    3d02:	ab 01       	movw	r20, r22
    3d04:	69 e0       	ldi	r22, 0x09	; 9
    3d06:	70 e0       	ldi	r23, 0x00	; 0
    3d08:	ce 01       	movw	r24, r28
    3d0a:	0e 94 ef 09 	call	0x13de	; 0x13de <print_bigNumber>
		print_bigNumber(64-width/2+pgm_read_byte(&bigNumberWidth[snoozeDuration/10])+2,timeYPos,snoozeDuration%10);
    3d0e:	80 91 08 01 	lds	r24, 0x0108
    3d12:	90 91 09 01 	lds	r25, 0x0109
    3d16:	b8 01       	movw	r22, r16
    3d18:	0e 94 6f 22 	call	0x44de	; 0x44de <__divmodhi4>
    3d1c:	fb 01       	movw	r30, r22
    3d1e:	e8 56       	subi	r30, 0x68	; 104
    3d20:	fe 4f       	sbci	r31, 0xFE	; 254
    3d22:	64 91       	lpm	r22, Z
    3d24:	c6 0f       	add	r28, r22
    3d26:	d1 1d       	adc	r29, r1
    3d28:	ac 01       	movw	r20, r24
    3d2a:	69 e0       	ldi	r22, 0x09	; 9
    3d2c:	70 e0       	ldi	r23, 0x00	; 0
    3d2e:	ce 01       	movw	r24, r28
    3d30:	02 96       	adiw	r24, 0x02	; 2
    3d32:	0e 94 ef 09 	call	0x13de	; 0x13de <print_bigNumber>
    3d36:	10 c0       	rjmp	.+32     	; 0x3d58 <printSnoozetime+0xe8>
	}else{
		print_bigNumber(64-width/2,timeYPos,snoozeDuration);
    3d38:	97 01       	movw	r18, r14
    3d3a:	ff 20       	and	r15, r15
    3d3c:	14 f4       	brge	.+4      	; 0x3d42 <printSnoozetime+0xd2>
    3d3e:	2f 5f       	subi	r18, 0xFF	; 255
    3d40:	3f 4f       	sbci	r19, 0xFF	; 255
    3d42:	35 95       	asr	r19
    3d44:	27 95       	ror	r18
    3d46:	ac 01       	movw	r20, r24
    3d48:	69 e0       	ldi	r22, 0x09	; 9
    3d4a:	70 e0       	ldi	r23, 0x00	; 0
    3d4c:	80 e4       	ldi	r24, 0x40	; 64
    3d4e:	90 e0       	ldi	r25, 0x00	; 0
    3d50:	82 1b       	sub	r24, r18
    3d52:	93 0b       	sbc	r25, r19
    3d54:	0e 94 ef 09 	call	0x13de	; 0x13de <print_bigNumber>
	}
}
    3d58:	df 91       	pop	r29
    3d5a:	cf 91       	pop	r28
    3d5c:	1f 91       	pop	r17
    3d5e:	0f 91       	pop	r16
    3d60:	ff 90       	pop	r15
    3d62:	ef 90       	pop	r14
    3d64:	08 95       	ret

00003d66 <set_snoozeDuration>:
int charArraySize(char ch[]){
	return (sizeof(ch)/sizeof(ch[0]));
}


void set_snoozeDuration(){
    3d66:	2f 92       	push	r2
    3d68:	3f 92       	push	r3
    3d6a:	4f 92       	push	r4
    3d6c:	5f 92       	push	r5
    3d6e:	6f 92       	push	r6
    3d70:	7f 92       	push	r7
    3d72:	8f 92       	push	r8
    3d74:	9f 92       	push	r9
    3d76:	af 92       	push	r10
    3d78:	bf 92       	push	r11
    3d7a:	cf 92       	push	r12
    3d7c:	df 92       	push	r13
    3d7e:	ef 92       	push	r14
    3d80:	ff 92       	push	r15
    3d82:	0f 93       	push	r16
    3d84:	1f 93       	push	r17
    3d86:	cf 93       	push	r28
    3d88:	df 93       	push	r29
    3d8a:	00 d0       	rcall	.+0      	; 0x3d8c <set_snoozeDuration+0x26>
    3d8c:	00 d0       	rcall	.+0      	; 0x3d8e <set_snoozeDuration+0x28>
    3d8e:	00 d0       	rcall	.+0      	; 0x3d90 <set_snoozeDuration+0x2a>
    3d90:	cd b7       	in	r28, 0x3d	; 61
    3d92:	de b7       	in	r29, 0x3e	; 62
	btn_drehenc_pushed = false;
    3d94:	10 92 6e 01 	sts	0x016E, r1
	int item = 0;
	clear_pixelMatrix();
    3d98:	0e 94 6b 0d 	call	0x1ad6	; 0x1ad6 <clear_pixelMatrix>
	clear_LCD();
    3d9c:	0e 94 c8 07 	call	0xf90	; 0xf90 <clear_LCD>
	print_symbol(16,17, hakenSymb,108,46);
    3da0:	0e e2       	ldi	r16, 0x2E	; 46
    3da2:	10 e0       	ldi	r17, 0x00	; 0
    3da4:	2c e6       	ldi	r18, 0x6C	; 108
    3da6:	30 e0       	ldi	r19, 0x00	; 0
    3da8:	44 e8       	ldi	r20, 0x84	; 132
    3daa:	51 e0       	ldi	r21, 0x01	; 1
    3dac:	61 e1       	ldi	r22, 0x11	; 17
    3dae:	70 e0       	ldi	r23, 0x00	; 0
    3db0:	80 e1       	ldi	r24, 0x10	; 16
    3db2:	90 e0       	ldi	r25, 0x00	; 0
    3db4:	0e 94 59 08 	call	0x10b2	; 0x10b2 <print_symbol>
}


void set_snoozeDuration(){
	btn_drehenc_pushed = false;
	int item = 0;
    3db8:	c1 2c       	mov	r12, r1
    3dba:	d1 2c       	mov	r13, r1
	clear_pixelMatrix();
	clear_LCD();
	print_symbol(16,17, hakenSymb,108,46);
	while(item!=1){
		int width = pgm_read_byte(&bigNumberWidth[snoozeDuration%10]);
    3dbc:	0f 2e       	mov	r0, r31
    3dbe:	fa e0       	ldi	r31, 0x0A	; 10
    3dc0:	4f 2e       	mov	r4, r31
    3dc2:	51 2c       	mov	r5, r1
    3dc4:	f0 2d       	mov	r31, r0
			item=item%2;
			if(item<0)
				item+=2;
			rotary = 0;
			if(item == 0){
				print_symbol(8,HERZ_KLEIN_WIDTH,herzKleinSymb,64-4, 2); 
    3dc6:	68 94       	set
    3dc8:	ee 24       	eor	r14, r14
    3dca:	e1 f8       	bld	r14, 1
    3dcc:	fe 2c       	mov	r15, r14
		if(item==0){
			print_symbol(8,HERZ_KLEIN_WIDTH,herzKleinOffenSymb,64-HERZ_KLEIN_WIDTH/2, 2);
			update_LCD();
			while(!btn_drehenc_pushed){
				if(rotary!=0){
					for(int x = 64-width/2; x<64+width/2;x++){
    3dce:	68 94       	set
    3dd0:	88 24       	eor	r8, r8
    3dd2:	86 f8       	bld	r8, 6
    3dd4:	91 2c       	mov	r9, r1
						for(int y = timeYPos; y<timeYPos+BIG_NUMBER_HEIGHT; y++)
						reset_pixel(x,y);
					}
					snoozeDuration+=rotary;
					snoozeDuration=snoozeDuration%99;
    3dd6:	0f 2e       	mov	r0, r31
    3dd8:	f3 e6       	ldi	r31, 0x63	; 99
    3dda:	2f 2e       	mov	r2, r31
    3ddc:	31 2c       	mov	r3, r1
    3dde:	f0 2d       	mov	r31, r0
			}
			update_LCD();
			goodNight();
			check_light();	
		}
		btn_drehenc_pushed = false;
    3de0:	0f 2e       	mov	r0, r31
    3de2:	f9 e0       	ldi	r31, 0x09	; 9
    3de4:	7f 2e       	mov	r7, r31
    3de6:	f0 2d       	mov	r31, r0
	int item = 0;
	clear_pixelMatrix();
	clear_LCD();
	print_symbol(16,17, hakenSymb,108,46);
	while(item!=1){
		int width = pgm_read_byte(&bigNumberWidth[snoozeDuration%10]);
    3de8:	20 91 08 01 	lds	r18, 0x0108
    3dec:	30 91 09 01 	lds	r19, 0x0109
    3df0:	c9 01       	movw	r24, r18
    3df2:	b2 01       	movw	r22, r4
    3df4:	0e 94 6f 22 	call	0x44de	; 0x44de <__divmodhi4>
    3df8:	fc 01       	movw	r30, r24
    3dfa:	e8 56       	subi	r30, 0x68	; 104
    3dfc:	fe 4f       	sbci	r31, 0xFE	; 254
    3dfe:	e4 91       	lpm	r30, Z
    3e00:	ae 2e       	mov	r10, r30
    3e02:	b1 2c       	mov	r11, r1
		if(snoozeDuration>9){
    3e04:	2a 30       	cpi	r18, 0x0A	; 10
    3e06:	31 05       	cpc	r19, r1
    3e08:	54 f0       	brlt	.+20     	; 0x3e1e <set_snoozeDuration+0xb8>
			width += pgm_read_byte(&bigNumberWidth[snoozeDuration/10]);
    3e0a:	c9 01       	movw	r24, r18
    3e0c:	b2 01       	movw	r22, r4
    3e0e:	0e 94 6f 22 	call	0x44de	; 0x44de <__divmodhi4>
    3e12:	fb 01       	movw	r30, r22
    3e14:	e8 56       	subi	r30, 0x68	; 104
    3e16:	fe 4f       	sbci	r31, 0xFE	; 254
    3e18:	e4 91       	lpm	r30, Z
    3e1a:	ae 0e       	add	r10, r30
    3e1c:	b1 1c       	adc	r11, r1
		}
		printSnoozetime();
    3e1e:	0e 94 38 1e 	call	0x3c70	; 0x3c70 <printSnoozetime>
		while(!btn_drehenc_pushed){
    3e22:	80 91 6e 01 	lds	r24, 0x016E
    3e26:	81 11       	cpse	r24, r1
    3e28:	5a c0       	rjmp	.+180    	; 0x3ede <set_snoozeDuration+0x178>
			item+=rotary;
    3e2a:	80 91 6f 01 	lds	r24, 0x016F
    3e2e:	90 91 70 01 	lds	r25, 0x0170
    3e32:	c8 0e       	add	r12, r24
    3e34:	d9 1e       	adc	r13, r25
			item=item%2;
    3e36:	c6 01       	movw	r24, r12
    3e38:	81 70       	andi	r24, 0x01	; 1
    3e3a:	90 78       	andi	r25, 0x80	; 128
    3e3c:	99 23       	and	r25, r25
    3e3e:	24 f4       	brge	.+8      	; 0x3e48 <set_snoozeDuration+0xe2>
    3e40:	01 97       	sbiw	r24, 0x01	; 1
    3e42:	8e 6f       	ori	r24, 0xFE	; 254
    3e44:	9f 6f       	ori	r25, 0xFF	; 255
    3e46:	01 96       	adiw	r24, 0x01	; 1
    3e48:	6c 01       	movw	r12, r24
			if(item<0)
    3e4a:	99 23       	and	r25, r25
    3e4c:	1c f4       	brge	.+6      	; 0x3e54 <set_snoozeDuration+0xee>
				item+=2;
    3e4e:	22 e0       	ldi	r18, 0x02	; 2
    3e50:	c2 0e       	add	r12, r18
    3e52:	d1 1c       	adc	r13, r1
			rotary = 0;
    3e54:	10 92 70 01 	sts	0x0170, r1
    3e58:	10 92 6f 01 	sts	0x016F, r1
			if(item == 0){
    3e5c:	c1 14       	cp	r12, r1
    3e5e:	d1 04       	cpc	r13, r1
    3e60:	c9 f4       	brne	.+50     	; 0x3e94 <set_snoozeDuration+0x12e>
				print_symbol(8,HERZ_KLEIN_WIDTH,herzKleinSymb,64-4, 2); 
    3e62:	02 e0       	ldi	r16, 0x02	; 2
    3e64:	10 e0       	ldi	r17, 0x00	; 0
    3e66:	2c e3       	ldi	r18, 0x3C	; 60
    3e68:	30 e0       	ldi	r19, 0x00	; 0
    3e6a:	42 ed       	ldi	r20, 0xD2	; 210
    3e6c:	51 e0       	ldi	r21, 0x01	; 1
    3e6e:	b2 01       	movw	r22, r4
    3e70:	88 e0       	ldi	r24, 0x08	; 8
    3e72:	90 e0       	ldi	r25, 0x00	; 0
    3e74:	0e 94 59 08 	call	0x10b2	; 0x10b2 <print_symbol>
    3e78:	0c e5       	ldi	r16, 0x5C	; 92
    3e7a:	0a c0       	rjmp	.+20     	; 0x3e90 <set_snoozeDuration+0x12a>
				for(int x = 92; x<92+16; x++){
					for(int y = 2+3*15; y<64; y++)
					reset_pixel(x,y);
    3e7c:	61 2f       	mov	r22, r17
    3e7e:	80 2f       	mov	r24, r16
    3e80:	0e 94 06 08 	call	0x100c	; 0x100c <reset_pixel>
    3e84:	1f 5f       	subi	r17, 0xFF	; 255
				item+=2;
			rotary = 0;
			if(item == 0){
				print_symbol(8,HERZ_KLEIN_WIDTH,herzKleinSymb,64-4, 2); 
				for(int x = 92; x<92+16; x++){
					for(int y = 2+3*15; y<64; y++)
    3e86:	10 34       	cpi	r17, 0x40	; 64
    3e88:	c9 f7       	brne	.-14     	; 0x3e7c <set_snoozeDuration+0x116>
    3e8a:	0f 5f       	subi	r16, 0xFF	; 255
			if(item<0)
				item+=2;
			rotary = 0;
			if(item == 0){
				print_symbol(8,HERZ_KLEIN_WIDTH,herzKleinSymb,64-4, 2); 
				for(int x = 92; x<92+16; x++){
    3e8c:	0c 36       	cpi	r16, 0x6C	; 108
    3e8e:	e1 f0       	breq	.+56     	; 0x3ec8 <set_snoozeDuration+0x162>
}


void set_snoozeDuration(){
	btn_drehenc_pushed = false;
	int item = 0;
    3e90:	1f e2       	ldi	r17, 0x2F	; 47
    3e92:	f4 cf       	rjmp	.-24     	; 0x3e7c <set_snoozeDuration+0x116>
				for(int x = 92; x<92+16; x++){
					for(int y = 2+3*15; y<64; y++)
					reset_pixel(x,y);
				}
			} else {
				print_symbol(16,16, herzSymb, 92, 2+3*15);
    3e94:	0f e2       	ldi	r16, 0x2F	; 47
    3e96:	10 e0       	ldi	r17, 0x00	; 0
    3e98:	2c e5       	ldi	r18, 0x5C	; 92
    3e9a:	30 e0       	ldi	r19, 0x00	; 0
    3e9c:	46 ea       	ldi	r20, 0xA6	; 166
    3e9e:	51 e0       	ldi	r21, 0x01	; 1
    3ea0:	60 e1       	ldi	r22, 0x10	; 16
    3ea2:	70 e0       	ldi	r23, 0x00	; 0
    3ea4:	80 e1       	ldi	r24, 0x10	; 16
    3ea6:	90 e0       	ldi	r25, 0x00	; 0
    3ea8:	0e 94 59 08 	call	0x10b2	; 0x10b2 <print_symbol>
    3eac:	08 e3       	ldi	r16, 0x38	; 56
    3eae:	0a c0       	rjmp	.+20     	; 0x3ec4 <set_snoozeDuration+0x15e>
				for(int x = 64-8; x<64+8; x++){
					for(int y = 2; y<11; y++)
					reset_pixel(x,y);
    3eb0:	61 2f       	mov	r22, r17
    3eb2:	80 2f       	mov	r24, r16
    3eb4:	0e 94 06 08 	call	0x100c	; 0x100c <reset_pixel>
    3eb8:	1f 5f       	subi	r17, 0xFF	; 255
					reset_pixel(x,y);
				}
			} else {
				print_symbol(16,16, herzSymb, 92, 2+3*15);
				for(int x = 64-8; x<64+8; x++){
					for(int y = 2; y<11; y++)
    3eba:	1b 30       	cpi	r17, 0x0B	; 11
    3ebc:	c9 f7       	brne	.-14     	; 0x3eb0 <set_snoozeDuration+0x14a>
    3ebe:	0f 5f       	subi	r16, 0xFF	; 255
					for(int y = 2+3*15; y<64; y++)
					reset_pixel(x,y);
				}
			} else {
				print_symbol(16,16, herzSymb, 92, 2+3*15);
				for(int x = 64-8; x<64+8; x++){
    3ec0:	08 34       	cpi	r16, 0x48	; 72
    3ec2:	11 f0       	breq	.+4      	; 0x3ec8 <set_snoozeDuration+0x162>
			item=item%2;
			if(item<0)
				item+=2;
			rotary = 0;
			if(item == 0){
				print_symbol(8,HERZ_KLEIN_WIDTH,herzKleinSymb,64-4, 2); 
    3ec4:	1f 2d       	mov	r17, r15
    3ec6:	f4 cf       	rjmp	.-24     	; 0x3eb0 <set_snoozeDuration+0x14a>
				for(int x = 64-8; x<64+8; x++){
					for(int y = 2; y<11; y++)
					reset_pixel(x,y);
				}
			}
			update_LCD();
    3ec8:	0e 94 2a 08 	call	0x1054	; 0x1054 <update_LCD>
			goodNight();
    3ecc:	0e 94 4c 14 	call	0x2898	; 0x2898 <goodNight>
			check_light();	
    3ed0:	0e 94 39 13 	call	0x2672	; 0x2672 <check_light>
		int width = pgm_read_byte(&bigNumberWidth[snoozeDuration%10]);
		if(snoozeDuration>9){
			width += pgm_read_byte(&bigNumberWidth[snoozeDuration/10]);
		}
		printSnoozetime();
		while(!btn_drehenc_pushed){
    3ed4:	80 91 6e 01 	lds	r24, 0x016E
    3ed8:	88 23       	and	r24, r24
    3eda:	09 f4       	brne	.+2      	; 0x3ede <set_snoozeDuration+0x178>
    3edc:	a6 cf       	rjmp	.-180    	; 0x3e2a <set_snoozeDuration+0xc4>
			}
			update_LCD();
			goodNight();
			check_light();	
		}
		btn_drehenc_pushed = false;
    3ede:	10 92 6e 01 	sts	0x016E, r1
    3ee2:	08 e3       	ldi	r16, 0x38	; 56
    3ee4:	0a c0       	rjmp	.+20     	; 0x3efa <set_snoozeDuration+0x194>
		for(int x = 64-8; x<64+8; x++){
			for(int y = 2; y<11; y++)
			reset_pixel(x,y);
    3ee6:	61 2f       	mov	r22, r17
    3ee8:	80 2f       	mov	r24, r16
    3eea:	0e 94 06 08 	call	0x100c	; 0x100c <reset_pixel>
    3eee:	1f 5f       	subi	r17, 0xFF	; 255
			goodNight();
			check_light();	
		}
		btn_drehenc_pushed = false;
		for(int x = 64-8; x<64+8; x++){
			for(int y = 2; y<11; y++)
    3ef0:	1b 30       	cpi	r17, 0x0B	; 11
    3ef2:	c9 f7       	brne	.-14     	; 0x3ee6 <set_snoozeDuration+0x180>
    3ef4:	0f 5f       	subi	r16, 0xFF	; 255
			update_LCD();
			goodNight();
			check_light();	
		}
		btn_drehenc_pushed = false;
		for(int x = 64-8; x<64+8; x++){
    3ef6:	08 34       	cpi	r16, 0x48	; 72
    3ef8:	11 f0       	breq	.+4      	; 0x3efe <set_snoozeDuration+0x198>
				for(int x = 92; x<92+16; x++){
					for(int y = 2+3*15; y<64; y++)
					reset_pixel(x,y);
				}
			} else {
				print_symbol(16,16, herzSymb, 92, 2+3*15);
    3efa:	1e 2d       	mov	r17, r14
    3efc:	f4 cf       	rjmp	.-24     	; 0x3ee6 <set_snoozeDuration+0x180>
		btn_drehenc_pushed = false;
		for(int x = 64-8; x<64+8; x++){
			for(int y = 2; y<11; y++)
			reset_pixel(x,y);
		}
		if(item==0){
    3efe:	c1 14       	cp	r12, r1
    3f00:	d1 04       	cpc	r13, r1
    3f02:	09 f0       	breq	.+2      	; 0x3f06 <set_snoozeDuration+0x1a0>
    3f04:	71 c0       	rjmp	.+226    	; 0x3fe8 <set_snoozeDuration+0x282>
			print_symbol(8,HERZ_KLEIN_WIDTH,herzKleinOffenSymb,64-HERZ_KLEIN_WIDTH/2, 2);
    3f06:	02 e0       	ldi	r16, 0x02	; 2
    3f08:	10 e0       	ldi	r17, 0x00	; 0
    3f0a:	2b e3       	ldi	r18, 0x3B	; 59
    3f0c:	30 e0       	ldi	r19, 0x00	; 0
    3f0e:	46 ec       	ldi	r20, 0xC6	; 198
    3f10:	51 e0       	ldi	r21, 0x01	; 1
    3f12:	b2 01       	movw	r22, r4
    3f14:	88 e0       	ldi	r24, 0x08	; 8
    3f16:	90 e0       	ldi	r25, 0x00	; 0
    3f18:	0e 94 59 08 	call	0x10b2	; 0x10b2 <print_symbol>
			update_LCD();
    3f1c:	0e 94 2a 08 	call	0x1054	; 0x1054 <update_LCD>
			while(!btn_drehenc_pushed){
    3f20:	80 91 6e 01 	lds	r24, 0x016E
    3f24:	81 11       	cpse	r24, r1
    3f26:	5d c0       	rjmp	.+186    	; 0x3fe2 <set_snoozeDuration+0x27c>
				if(rotary!=0){
					for(int x = 64-width/2; x<64+width/2;x++){
    3f28:	c5 01       	movw	r24, r10
    3f2a:	99 23       	and	r25, r25
    3f2c:	0c f4       	brge	.+2      	; 0x3f30 <set_snoozeDuration+0x1ca>
    3f2e:	01 96       	adiw	r24, 0x01	; 1
    3f30:	95 95       	asr	r25
    3f32:	87 95       	ror	r24
    3f34:	54 01       	movw	r10, r8
    3f36:	a8 1a       	sub	r10, r24
    3f38:	b9 0a       	sbc	r11, r25
    3f3a:	fc 01       	movw	r30, r24
    3f3c:	e0 5c       	subi	r30, 0xC0	; 192
    3f3e:	ff 4f       	sbci	r31, 0xFF	; 255
    3f40:	fa 83       	std	Y+2, r31	; 0x02
    3f42:	e9 83       	std	Y+1, r30	; 0x01
    3f44:	6a 2c       	mov	r6, r10
    3f46:	0b 2d       	mov	r16, r11
		}
		if(item==0){
			print_symbol(8,HERZ_KLEIN_WIDTH,herzKleinOffenSymb,64-HERZ_KLEIN_WIDTH/2, 2);
			update_LCD();
			while(!btn_drehenc_pushed){
				if(rotary!=0){
    3f48:	80 91 6f 01 	lds	r24, 0x016F
    3f4c:	90 91 70 01 	lds	r25, 0x0170
    3f50:	89 2b       	or	r24, r25
    3f52:	d1 f1       	breq	.+116    	; 0x3fc8 <set_snoozeDuration+0x262>
					for(int x = 64-width/2; x<64+width/2;x++){
    3f54:	29 81       	ldd	r18, Y+1	; 0x01
    3f56:	3a 81       	ldd	r19, Y+2	; 0x02
    3f58:	a2 16       	cp	r10, r18
    3f5a:	b3 06       	cpc	r11, r19
    3f5c:	9c f0       	brlt	.+38     	; 0x3f84 <set_snoozeDuration+0x21e>
    3f5e:	16 c0       	rjmp	.+44     	; 0x3f8c <set_snoozeDuration+0x226>
						for(int y = timeYPos; y<timeYPos+BIG_NUMBER_HEIGHT; y++)
						reset_pixel(x,y);
    3f60:	61 2f       	mov	r22, r17
    3f62:	8d 81       	ldd	r24, Y+5	; 0x05
    3f64:	0e 94 06 08 	call	0x100c	; 0x100c <reset_pixel>
    3f68:	1f 5f       	subi	r17, 0xFF	; 255
			print_symbol(8,HERZ_KLEIN_WIDTH,herzKleinOffenSymb,64-HERZ_KLEIN_WIDTH/2, 2);
			update_LCD();
			while(!btn_drehenc_pushed){
				if(rotary!=0){
					for(int x = 64-width/2; x<64+width/2;x++){
						for(int y = timeYPos; y<timeYPos+BIG_NUMBER_HEIGHT; y++)
    3f6a:	19 32       	cpi	r17, 0x29	; 41
    3f6c:	c9 f7       	brne	.-14     	; 0x3f60 <set_snoozeDuration+0x1fa>
		if(item==0){
			print_symbol(8,HERZ_KLEIN_WIDTH,herzKleinOffenSymb,64-HERZ_KLEIN_WIDTH/2, 2);
			update_LCD();
			while(!btn_drehenc_pushed){
				if(rotary!=0){
					for(int x = 64-width/2; x<64+width/2;x++){
    3f6e:	8d 81       	ldd	r24, Y+5	; 0x05
    3f70:	9e 81       	ldd	r25, Y+6	; 0x06
    3f72:	01 96       	adiw	r24, 0x01	; 1
    3f74:	9e 83       	std	Y+6, r25	; 0x06
    3f76:	8d 83       	std	Y+5, r24	; 0x05
    3f78:	e9 81       	ldd	r30, Y+1	; 0x01
    3f7a:	fa 81       	ldd	r31, Y+2	; 0x02
    3f7c:	8e 17       	cp	r24, r30
    3f7e:	9f 07       	cpc	r25, r31
    3f80:	1c f0       	brlt	.+6      	; 0x3f88 <set_snoozeDuration+0x222>
    3f82:	04 c0       	rjmp	.+8      	; 0x3f8c <set_snoozeDuration+0x226>
    3f84:	6d 82       	std	Y+5, r6	; 0x05
    3f86:	0e 83       	std	Y+6, r16	; 0x06
			}
			update_LCD();
			goodNight();
			check_light();	
		}
		btn_drehenc_pushed = false;
    3f88:	17 2d       	mov	r17, r7
    3f8a:	ea cf       	rjmp	.-44     	; 0x3f60 <set_snoozeDuration+0x1fa>
				if(rotary!=0){
					for(int x = 64-width/2; x<64+width/2;x++){
						for(int y = timeYPos; y<timeYPos+BIG_NUMBER_HEIGHT; y++)
						reset_pixel(x,y);
					}
					snoozeDuration+=rotary;
    3f8c:	20 91 08 01 	lds	r18, 0x0108
    3f90:	30 91 09 01 	lds	r19, 0x0109
    3f94:	80 91 6f 01 	lds	r24, 0x016F
    3f98:	90 91 70 01 	lds	r25, 0x0170
    3f9c:	82 0f       	add	r24, r18
    3f9e:	93 1f       	adc	r25, r19
					snoozeDuration=snoozeDuration%99;
    3fa0:	b1 01       	movw	r22, r2
    3fa2:	0e 94 6f 22 	call	0x44de	; 0x44de <__divmodhi4>
					if(snoozeDuration<0)
    3fa6:	99 23       	and	r25, r25
    3fa8:	2c f0       	brlt	.+10     	; 0x3fb4 <set_snoozeDuration+0x24e>
					for(int x = 64-width/2; x<64+width/2;x++){
						for(int y = timeYPos; y<timeYPos+BIG_NUMBER_HEIGHT; y++)
						reset_pixel(x,y);
					}
					snoozeDuration+=rotary;
					snoozeDuration=snoozeDuration%99;
    3faa:	90 93 09 01 	sts	0x0109, r25
    3fae:	80 93 08 01 	sts	0x0108, r24
    3fb2:	06 c0       	rjmp	.+12     	; 0x3fc0 <set_snoozeDuration+0x25a>
					if(snoozeDuration<0)
					snoozeDuration+=99;
    3fb4:	8d 59       	subi	r24, 0x9D	; 157
    3fb6:	9f 4f       	sbci	r25, 0xFF	; 255
    3fb8:	90 93 09 01 	sts	0x0109, r25
    3fbc:	80 93 08 01 	sts	0x0108, r24
					rotary = 0;
    3fc0:	10 92 70 01 	sts	0x0170, r1
    3fc4:	10 92 6f 01 	sts	0x016F, r1
				}
				printSnoozetime();
    3fc8:	0e 94 38 1e 	call	0x3c70	; 0x3c70 <printSnoozetime>
				update_LCD();
    3fcc:	0e 94 2a 08 	call	0x1054	; 0x1054 <update_LCD>
				goodNight();
    3fd0:	0e 94 4c 14 	call	0x2898	; 0x2898 <goodNight>
				check_light();
    3fd4:	0e 94 39 13 	call	0x2672	; 0x2672 <check_light>
			reset_pixel(x,y);
		}
		if(item==0){
			print_symbol(8,HERZ_KLEIN_WIDTH,herzKleinOffenSymb,64-HERZ_KLEIN_WIDTH/2, 2);
			update_LCD();
			while(!btn_drehenc_pushed){
    3fd8:	80 91 6e 01 	lds	r24, 0x016E
    3fdc:	88 23       	and	r24, r24
    3fde:	09 f4       	brne	.+2      	; 0x3fe2 <set_snoozeDuration+0x27c>
    3fe0:	b3 cf       	rjmp	.-154    	; 0x3f48 <set_snoozeDuration+0x1e2>
				printSnoozetime();
				update_LCD();
				goodNight();
				check_light();
			}
			btn_drehenc_pushed = false;
    3fe2:	10 92 6e 01 	sts	0x016E, r1
    3fe6:	00 cf       	rjmp	.-512    	; 0x3de8 <set_snoozeDuration+0x82>
	btn_drehenc_pushed = false;
	int item = 0;
	clear_pixelMatrix();
	clear_LCD();
	print_symbol(16,17, hakenSymb,108,46);
	while(item!=1){
    3fe8:	f1 e0       	ldi	r31, 0x01	; 1
    3fea:	cf 16       	cp	r12, r31
    3fec:	d1 04       	cpc	r13, r1
    3fee:	09 f0       	breq	.+2      	; 0x3ff2 <set_snoozeDuration+0x28c>
    3ff0:	fb ce       	rjmp	.-522    	; 0x3de8 <set_snoozeDuration+0x82>
				check_light();
			}
			btn_drehenc_pushed = false;
		}
	}
}
    3ff2:	26 96       	adiw	r28, 0x06	; 6
    3ff4:	0f b6       	in	r0, 0x3f	; 63
    3ff6:	f8 94       	cli
    3ff8:	de bf       	out	0x3e, r29	; 62
    3ffa:	0f be       	out	0x3f, r0	; 63
    3ffc:	cd bf       	out	0x3d, r28	; 61
    3ffe:	df 91       	pop	r29
    4000:	cf 91       	pop	r28
    4002:	1f 91       	pop	r17
    4004:	0f 91       	pop	r16
    4006:	ff 90       	pop	r15
    4008:	ef 90       	pop	r14
    400a:	df 90       	pop	r13
    400c:	cf 90       	pop	r12
    400e:	bf 90       	pop	r11
    4010:	af 90       	pop	r10
    4012:	9f 90       	pop	r9
    4014:	8f 90       	pop	r8
    4016:	7f 90       	pop	r7
    4018:	6f 90       	pop	r6
    401a:	5f 90       	pop	r5
    401c:	4f 90       	pop	r4
    401e:	3f 90       	pop	r3
    4020:	2f 90       	pop	r2
    4022:	08 95       	ret

00004024 <show_mainMenu2>:
			default: print_stdDisplay(); break;
		}
	}
}

bool show_mainMenu2(){
    4024:	cf 93       	push	r28
    4026:	df 93       	push	r29
	int item = 1;
    4028:	c1 e0       	ldi	r28, 0x01	; 1
    402a:	d0 e0       	ldi	r29, 0x00	; 0
    402c:	17 c0       	rjmp	.+46     	; 0x405c <show_mainMenu2+0x38>
		print_menuItems(". . .","Snoozedauer", "Lautstrke", "Boombox");
		update_LCD();
		item = get_menuSelection(4, item);
		switch (item) {
			case 0: break; //"..." ausgewhlt -> in Men1 zurckkehren
			case 1: set_snoozeDuration(); break;
    402e:	0e 94 b3 1e 	call	0x3d66	; 0x3d66 <set_snoozeDuration>
    4032:	14 c0       	rjmp	.+40     	; 0x405c <show_mainMenu2+0x38>
			case 2: set_audio(); break;
    4034:	0e 94 77 1c 	call	0x38ee	; 0x38ee <set_audio>
    4038:	11 c0       	rjmp	.+34     	; 0x405c <show_mainMenu2+0x38>
			case 3: boombox(); break;
    403a:	0e 94 d7 1d 	call	0x3bae	; 0x3bae <boombox>
    403e:	0e c0       	rjmp	.+28     	; 0x405c <show_mainMenu2+0x38>
			case 4: print_stdDisplay(); break;
    4040:	0e 94 28 13 	call	0x2650	; 0x2650 <print_stdDisplay>
    4044:	06 c0       	rjmp	.+12     	; 0x4052 <show_mainMenu2+0x2e>
			default: print_stdDisplay(); break;
    4046:	0e 94 28 13 	call	0x2650	; 0x2650 <print_stdDisplay>
	}
}

bool show_mainMenu2(){
	int item = 1;
	while((item > 0) && (item<4)){
    404a:	ce 01       	movw	r24, r28
    404c:	01 97       	sbiw	r24, 0x01	; 1
    404e:	03 97       	sbiw	r24, 0x03	; 3
    4050:	28 f0       	brcs	.+10     	; 0x405c <show_mainMenu2+0x38>
			case 3: boombox(); break;
			case 4: print_stdDisplay(); break;
			default: print_stdDisplay(); break;
		}
	}
	if(item == 0){
    4052:	81 e0       	ldi	r24, 0x01	; 1
    4054:	cd 2b       	or	r28, r29
    4056:	19 f1       	breq	.+70     	; 0x409e <show_mainMenu2+0x7a>
    4058:	80 e0       	ldi	r24, 0x00	; 0
    405a:	21 c0       	rjmp	.+66     	; 0x409e <show_mainMenu2+0x7a>
}

bool show_mainMenu2(){
	int item = 1;
	while((item > 0) && (item<4)){
		print_menuItems(". . .","Snoozedauer", "Lautstrke", "Boombox");
    405c:	25 e2       	ldi	r18, 0x25	; 37
    405e:	31 e0       	ldi	r19, 0x01	; 1
    4060:	4d e2       	ldi	r20, 0x2D	; 45
    4062:	51 e0       	ldi	r21, 0x01	; 1
    4064:	68 e3       	ldi	r22, 0x38	; 56
    4066:	71 e0       	ldi	r23, 0x01	; 1
    4068:	84 e4       	ldi	r24, 0x44	; 68
    406a:	91 e0       	ldi	r25, 0x01	; 1
    406c:	0e 94 6b 11 	call	0x22d6	; 0x22d6 <print_menuItems>
		update_LCD();
    4070:	0e 94 2a 08 	call	0x1054	; 0x1054 <update_LCD>
		item = get_menuSelection(4, item);
    4074:	be 01       	movw	r22, r28
    4076:	84 e0       	ldi	r24, 0x04	; 4
    4078:	90 e0       	ldi	r25, 0x00	; 0
    407a:	0e 94 75 15 	call	0x2aea	; 0x2aea <get_menuSelection>
    407e:	ec 01       	movw	r28, r24
		switch (item) {
    4080:	82 30       	cpi	r24, 0x02	; 2
    4082:	91 05       	cpc	r25, r1
    4084:	b9 f2       	breq	.-82     	; 0x4034 <show_mainMenu2+0x10>
    4086:	2c f4       	brge	.+10     	; 0x4092 <show_mainMenu2+0x6e>
    4088:	00 97       	sbiw	r24, 0x00	; 0
    408a:	19 f3       	breq	.-58     	; 0x4052 <show_mainMenu2+0x2e>
    408c:	01 97       	sbiw	r24, 0x01	; 1
    408e:	79 f2       	breq	.-98     	; 0x402e <show_mainMenu2+0xa>
    4090:	da cf       	rjmp	.-76     	; 0x4046 <show_mainMenu2+0x22>
    4092:	83 30       	cpi	r24, 0x03	; 3
    4094:	91 05       	cpc	r25, r1
    4096:	89 f2       	breq	.-94     	; 0x403a <show_mainMenu2+0x16>
    4098:	04 97       	sbiw	r24, 0x04	; 4
    409a:	91 f2       	breq	.-92     	; 0x4040 <show_mainMenu2+0x1c>
    409c:	d4 cf       	rjmp	.-88     	; 0x4046 <show_mainMenu2+0x22>
	if(item == 0){
		return true;
	} else {
		return false;
	}
}
    409e:	df 91       	pop	r29
    40a0:	cf 91       	pop	r28
    40a2:	08 95       	ret

000040a4 <show_mainMenu>:
	sei();
	return selectedItem;
}
	
	
void show_mainMenu(){
    40a4:	1f 93       	push	r17
    40a6:	cf 93       	push	r28
    40a8:	df 93       	push	r29
	int item = 0;
    40aa:	c0 e0       	ldi	r28, 0x00	; 0
    40ac:	d0 e0       	ldi	r29, 0x00	; 0
	while((item<4) && (stayOpened == true)){	
		print_menuItems("Weckzeit", "Uhrzeit", "Datum", ". . .");
		update_LCD();
		item = get_menuSelection(4, item);
		switch (item) {
			case 0: set_alarm(); break;
    40ae:	11 e0       	ldi	r17, 0x01	; 1
	
void show_mainMenu(){
	int item = 0;
	bool stayOpened = true; //wird bentigt um Rckgabewert aus Menu2 zu speichern
	while((item<4) && (stayOpened == true)){	
		print_menuItems("Weckzeit", "Uhrzeit", "Datum", ". . .");
    40b0:	24 e4       	ldi	r18, 0x44	; 68
    40b2:	31 e0       	ldi	r19, 0x01	; 1
    40b4:	4a e4       	ldi	r20, 0x4A	; 74
    40b6:	51 e0       	ldi	r21, 0x01	; 1
    40b8:	60 e5       	ldi	r22, 0x50	; 80
    40ba:	71 e0       	ldi	r23, 0x01	; 1
    40bc:	88 e5       	ldi	r24, 0x58	; 88
    40be:	91 e0       	ldi	r25, 0x01	; 1
    40c0:	0e 94 6b 11 	call	0x22d6	; 0x22d6 <print_menuItems>
		update_LCD();
    40c4:	0e 94 2a 08 	call	0x1054	; 0x1054 <update_LCD>
		item = get_menuSelection(4, item);
    40c8:	be 01       	movw	r22, r28
    40ca:	84 e0       	ldi	r24, 0x04	; 4
    40cc:	90 e0       	ldi	r25, 0x00	; 0
    40ce:	0e 94 75 15 	call	0x2aea	; 0x2aea <get_menuSelection>
    40d2:	ec 01       	movw	r28, r24
		switch (item) {
    40d4:	82 30       	cpi	r24, 0x02	; 2
    40d6:	91 05       	cpc	r25, r1
    40d8:	a9 f0       	breq	.+42     	; 0x4104 <show_mainMenu+0x60>
    40da:	2c f4       	brge	.+10     	; 0x40e6 <show_mainMenu+0x42>
    40dc:	00 97       	sbiw	r24, 0x00	; 0
    40de:	49 f0       	breq	.+18     	; 0x40f2 <show_mainMenu+0x4e>
    40e0:	01 97       	sbiw	r24, 0x01	; 1
    40e2:	59 f0       	breq	.+22     	; 0x40fa <show_mainMenu+0x56>
    40e4:	19 c0       	rjmp	.+50     	; 0x4118 <show_mainMenu+0x74>
    40e6:	83 30       	cpi	r24, 0x03	; 3
    40e8:	91 05       	cpc	r25, r1
    40ea:	81 f0       	breq	.+32     	; 0x410c <show_mainMenu+0x68>
    40ec:	04 97       	sbiw	r24, 0x04	; 4
    40ee:	89 f0       	breq	.+34     	; 0x4112 <show_mainMenu+0x6e>
    40f0:	13 c0       	rjmp	.+38     	; 0x4118 <show_mainMenu+0x74>
			case 0: set_alarm(); break;
    40f2:	0e 94 aa 18 	call	0x3154	; 0x3154 <set_alarm>
    40f6:	81 2f       	mov	r24, r17
    40f8:	15 c0       	rjmp	.+42     	; 0x4124 <show_mainMenu+0x80>
			case 1: set_time(TIME_TYPE); break;
    40fa:	80 e0       	ldi	r24, 0x00	; 0
    40fc:	0e 94 98 16 	call	0x2d30	; 0x2d30 <set_time>
    4100:	81 2f       	mov	r24, r17
    4102:	10 c0       	rjmp	.+32     	; 0x4124 <show_mainMenu+0x80>
			case 2: set_date(); break;
    4104:	0e 94 71 1a 	call	0x34e2	; 0x34e2 <set_date>
    4108:	81 2f       	mov	r24, r17
    410a:	0c c0       	rjmp	.+24     	; 0x4124 <show_mainMenu+0x80>
			case 3: stayOpened = show_mainMenu2(); break;//STAY OPENED BERFLSSIG (?)
    410c:	0e 94 12 20 	call	0x4024	; 0x4024 <show_mainMenu2>
    4110:	09 c0       	rjmp	.+18     	; 0x4124 <show_mainMenu+0x80>
			case 4: print_stdDisplay(); break;
    4112:	0e 94 28 13 	call	0x2650	; 0x2650 <print_stdDisplay>
    4116:	08 c0       	rjmp	.+16     	; 0x4128 <show_mainMenu+0x84>
			default: print_stdDisplay(); break;
    4118:	0e 94 28 13 	call	0x2650	; 0x2650 <print_stdDisplay>
	
	
void show_mainMenu(){
	int item = 0;
	bool stayOpened = true; //wird bentigt um Rckgabewert aus Menu2 zu speichern
	while((item<4) && (stayOpened == true)){	
    411c:	c4 30       	cpi	r28, 0x04	; 4
    411e:	d1 05       	cpc	r29, r1
    4120:	3c f2       	brlt	.-114    	; 0x40b0 <show_mainMenu+0xc>
    4122:	02 c0       	rjmp	.+4      	; 0x4128 <show_mainMenu+0x84>
    4124:	81 11       	cpse	r24, r1
    4126:	c4 cf       	rjmp	.-120    	; 0x40b0 <show_mainMenu+0xc>
			case 3: stayOpened = show_mainMenu2(); break;//STAY OPENED BERFLSSIG (?)
			case 4: print_stdDisplay(); break;
			default: print_stdDisplay(); break;
		}
	}
}
    4128:	df 91       	pop	r29
    412a:	cf 91       	pop	r28
    412c:	1f 91       	pop	r17
    412e:	08 95       	ret

00004130 <main>:
    4130:	2f ef       	ldi	r18, 0xFF	; 255
    4132:	89 e6       	ldi	r24, 0x69	; 105
    4134:	98 e1       	ldi	r25, 0x18	; 24
    4136:	21 50       	subi	r18, 0x01	; 1
    4138:	80 40       	sbci	r24, 0x00	; 0
    413a:	90 40       	sbci	r25, 0x00	; 0
    413c:	e1 f7       	brne	.-8      	; 0x4136 <main+0x6>
    413e:	00 c0       	rjmp	.+0      	; 0x4140 <main+0x10>
    4140:	00 00       	nop
int main(void)
{
	_delay_ms(1000); //Oszillator powerup


	set_ports();//Ein- und Ausgnge einstellen
    4142:	0e 94 6c 0c 	call	0x18d8	; 0x18d8 <set_ports>
	configureTimerAndInterrupts();//Bentigte Interrupts aktivieren, Timer einstellen
    4146:	0e 94 81 0c 	call	0x1902	; 0x1902 <configureTimerAndInterrupts>
	
	lcdInit();
    414a:	0e 94 87 07 	call	0xf0e	; 0xf0e <lcdInit>
	clear_LCD();
    414e:	0e 94 c8 07 	call	0xf90	; 0xf90 <clear_LCD>
    print_stdDisplay();
    4152:	0e 94 28 13 	call	0x2650	; 0x2650 <print_stdDisplay>
	
	sei(); //globale Interrupts aktivieren
    4156:	78 94       	sei
    4158:	0f 2e       	mov	r0, r31
    415a:	fb e5       	ldi	r31, 0x5B	; 91
    415c:	cf 2e       	mov	r12, r31
    415e:	fe e0       	ldi	r31, 0x0E	; 14
    4160:	df 2e       	mov	r13, r31
    4162:	f0 2d       	mov	r31, r0
    4164:	0f 2e       	mov	r0, r31
    4166:	f6 ea       	ldi	r31, 0xA6	; 166
    4168:	ef 2e       	mov	r14, r31
    416a:	f1 e0       	ldi	r31, 0x01	; 1
    416c:	ff 2e       	mov	r15, r31
    416e:	f0 2d       	mov	r31, r0
    4170:	06 ec       	ldi	r16, 0xC6	; 198
    4172:	11 e0       	ldi	r17, 0x01	; 1
    4174:	0f 2e       	mov	r0, r31
    4176:	f2 ed       	ldi	r31, 0xD2	; 210
    4178:	8f 2e       	mov	r8, r31
    417a:	f1 e0       	ldi	r31, 0x01	; 1
    417c:	9f 2e       	mov	r9, r31
    417e:	f0 2d       	mov	r31, r0
    4180:	0f 2e       	mov	r0, r31
    4182:	f6 ec       	ldi	r31, 0xC6	; 198
    4184:	af 2e       	mov	r10, r31
    4186:	f1 e0       	ldi	r31, 0x01	; 1
    4188:	bf 2e       	mov	r11, r31
    418a:	f0 2d       	mov	r31, r0
    418c:	0f 2e       	mov	r0, r31
    418e:	fb e7       	ldi	r31, 0x7B	; 123
    4190:	6f 2e       	mov	r6, r31
    4192:	fe e0       	ldi	r31, 0x0E	; 14
    4194:	7f 2e       	mov	r7, r31
    4196:	f0 2d       	mov	r31, r0
    4198:	0f 2e       	mov	r0, r31
    419a:	f4 e8       	ldi	r31, 0x84	; 132
    419c:	4f 2e       	mov	r4, r31
    419e:	f1 e0       	ldi	r31, 0x01	; 1
    41a0:	5f 2e       	mov	r5, r31
    41a2:	f0 2d       	mov	r31, r0
    41a4:	c6 ea       	ldi	r28, 0xA6	; 166
    41a6:	d1 e0       	ldi	r29, 0x01	; 1
					herzKleinOffenSymb[i] = pgm_read_byte(&herzKleinOffen[0][i]);
				}
				for(int i=0; i<HAKEN_WIDTH; i++){//PRFEN hakenSymb i<60
					hakenSymb[i] = pgm_read_byte(&haken[0][i]);
				}
				menuOpen = true;
    41a8:	33 24       	eor	r3, r3
    41aa:	33 94       	inc	r3
    print_stdDisplay();
	
	sei(); //globale Interrupts aktivieren

	while(1) {
		if(btn_light_pushed == true){
    41ac:	80 91 6d 01 	lds	r24, 0x016D
    41b0:	81 11       	cpse	r24, r1
			check_light();
    41b2:	0e 94 39 13 	call	0x2672	; 0x2672 <check_light>
		}
		if(rotary!=0){//Drehen soll hier keine Auswirkung haben
    41b6:	80 91 6f 01 	lds	r24, 0x016F
    41ba:	90 91 70 01 	lds	r25, 0x0170
    41be:	89 2b       	or	r24, r25
    41c0:	21 f0       	breq	.+8      	; 0x41ca <main+0x9a>
			rotary = 0;
    41c2:	10 92 70 01 	sts	0x0170, r1
    41c6:	10 92 6f 01 	sts	0x016F, r1
		}
		if(check_TimeUpdate()  ){
    41ca:	0e 94 88 0d 	call	0x1b10	; 0x1b10 <check_TimeUpdate>
    41ce:	88 23       	and	r24, r24
    41d0:	09 f1       	breq	.+66     	; 0x4214 <main+0xe4>
			if(!menuOpen) { 
    41d2:	80 91 71 01 	lds	r24, 0x0171
    41d6:	81 11       	cpse	r24, r1
    41d8:	02 c0       	rjmp	.+4      	; 0x41de <main+0xae>
				update_time();
    41da:	0e 94 f4 13 	call	0x27e8	; 0x27e8 <update_time>
			}
			if((hour == alarm_hour) && (minute == alarm_minute) && (alarm)){
    41de:	20 91 0a 01 	lds	r18, 0x010A
    41e2:	30 91 0b 01 	lds	r19, 0x010B
    41e6:	80 91 7e 01 	lds	r24, 0x017E
    41ea:	90 91 7f 01 	lds	r25, 0x017F
    41ee:	28 17       	cp	r18, r24
    41f0:	39 07       	cpc	r19, r25
    41f2:	81 f4       	brne	.+32     	; 0x4214 <main+0xe4>
    41f4:	20 91 82 01 	lds	r18, 0x0182
    41f8:	30 91 83 01 	lds	r19, 0x0183
    41fc:	80 91 7c 01 	lds	r24, 0x017C
    4200:	90 91 7d 01 	lds	r25, 0x017D
    4204:	28 17       	cp	r18, r24
    4206:	39 07       	cpc	r19, r25
    4208:	29 f4       	brne	.+10     	; 0x4214 <main+0xe4>
    420a:	80 91 72 01 	lds	r24, 0x0172
    420e:	81 11       	cpse	r24, r1
				wakeUp_User();
    4210:	0e 94 85 14 	call	0x290a	; 0x290a <wakeUp_User>
			}
		}
		if(btn_drehenc_pushed){
    4214:	80 91 6e 01 	lds	r24, 0x016E
    4218:	88 23       	and	r24, r24
    421a:	09 f4       	brne	.+2      	; 0x421e <main+0xee>
    421c:	5d c0       	rjmp	.+186    	; 0x42d8 <main+0x1a8>
			
			//Timer starten zum Zhlen
			start_btnPress();
    421e:	0e 94 7c 0d 	call	0x1af8	; 0x1af8 <start_btnPress>
			//warten, solange Taste gedrckt ist
			while((PINB & (1<<PINB2)) && (btn_press_duration<BTN_PRESS_LONG)){_delay_ms(50);}//KANN DELAY WEGGELASSEN WERDEN?
    4222:	1a 9b       	sbis	0x03, 2	; 3
    4224:	5c c0       	rjmp	.+184    	; 0x42de <main+0x1ae>
    4226:	20 e0       	ldi	r18, 0x00	; 0
    4228:	30 e0       	ldi	r19, 0x00	; 0
    422a:	40 ec       	ldi	r20, 0xC0	; 192
    422c:	5f e3       	ldi	r21, 0x3F	; 63
    422e:	60 91 69 01 	lds	r22, 0x0169
    4232:	70 91 6a 01 	lds	r23, 0x016A
    4236:	80 91 6b 01 	lds	r24, 0x016B
    423a:	90 91 6c 01 	lds	r25, 0x016C
    423e:	0e 94 f0 21 	call	0x43e0	; 0x43e0 <__cmpsf2>
    4242:	88 23       	and	r24, r24
    4244:	0c f0       	brlt	.+2      	; 0x4248 <main+0x118>
    4246:	4b c0       	rjmp	.+150    	; 0x42de <main+0x1ae>
    4248:	ef e7       	ldi	r30, 0x7F	; 127
    424a:	f8 e3       	ldi	r31, 0x38	; 56
    424c:	21 e0       	ldi	r18, 0x01	; 1
    424e:	e1 50       	subi	r30, 0x01	; 1
    4250:	f0 40       	sbci	r31, 0x00	; 0
    4252:	20 40       	sbci	r18, 0x00	; 0
    4254:	e1 f7       	brne	.-8      	; 0x424e <main+0x11e>
    4256:	00 c0       	rjmp	.+0      	; 0x4258 <main+0x128>
    4258:	00 00       	nop
    425a:	1a 9b       	sbis	0x03, 2	; 3
    425c:	40 c0       	rjmp	.+128    	; 0x42de <main+0x1ae>
    425e:	20 e0       	ldi	r18, 0x00	; 0
    4260:	30 e0       	ldi	r19, 0x00	; 0
    4262:	40 ec       	ldi	r20, 0xC0	; 192
    4264:	5f e3       	ldi	r21, 0x3F	; 63
    4266:	60 91 69 01 	lds	r22, 0x0169
    426a:	70 91 6a 01 	lds	r23, 0x016A
    426e:	80 91 6b 01 	lds	r24, 0x016B
    4272:	90 91 6c 01 	lds	r25, 0x016C
    4276:	0e 94 f0 21 	call	0x43e0	; 0x43e0 <__cmpsf2>
    427a:	88 23       	and	r24, r24
    427c:	2c f3       	brlt	.-54     	; 0x4248 <main+0x118>
    427e:	2f c0       	rjmp	.+94     	; 0x42de <main+0x1ae>
			//Zeitmessung beenden
			stop_btnPress();
			//falls lnger als BTN_PRESS_LONG gedrckt wurde, Men ffnen
			if(btn_press_duration > BTN_PRESS_LONG){ 
				for(int i=0; i<32; i++){
					herzSymb[i] = pgm_read_byte(&herz[0][i]);
    4280:	84 91       	lpm	r24, Z
    4282:	8d 93       	st	X+, r24
    4284:	31 96       	adiw	r30, 0x01	; 1
			while((PINB & (1<<PINB2)) && (btn_press_duration<BTN_PRESS_LONG)){_delay_ms(50);}//KANN DELAY WEGGELASSEN WERDEN?
			//Zeitmessung beenden
			stop_btnPress();
			//falls lnger als BTN_PRESS_LONG gedrckt wurde, Men ffnen
			if(btn_press_duration > BTN_PRESS_LONG){ 
				for(int i=0; i<32; i++){
    4286:	a0 17       	cp	r26, r16
    4288:	b1 07       	cpc	r27, r17
    428a:	d1 f7       	brne	.-12     	; 0x4280 <main+0x150>
    428c:	94 01       	movw	r18, r8
    428e:	d5 01       	movw	r26, r10
    4290:	80 e0       	ldi	r24, 0x00	; 0
    4292:	90 e0       	ldi	r25, 0x00	; 0
    4294:	fc 01       	movw	r30, r24
    4296:	ef 5a       	subi	r30, 0xAF	; 175
    4298:	f1 4f       	sbci	r31, 0xF1	; 241
					herzSymb[i] = pgm_read_byte(&herz[0][i]);
				}
				for(int i=0; i<HERZ_KLEIN_WIDTH; i++){
					herzKleinSymb[i] = pgm_read_byte(&herzKlein[0][i]);
    429a:	44 91       	lpm	r20, Z
    429c:	f9 01       	movw	r30, r18
    429e:	41 93       	st	Z+, r20
    42a0:	9f 01       	movw	r18, r30
    42a2:	fc 01       	movw	r30, r24
    42a4:	e9 5b       	subi	r30, 0xB9	; 185
    42a6:	f1 4f       	sbci	r31, 0xF1	; 241
					herzKleinOffenSymb[i] = pgm_read_byte(&herzKleinOffen[0][i]);
    42a8:	e4 91       	lpm	r30, Z
    42aa:	ed 93       	st	X+, r30
			//falls lnger als BTN_PRESS_LONG gedrckt wurde, Men ffnen
			if(btn_press_duration > BTN_PRESS_LONG){ 
				for(int i=0; i<32; i++){
					herzSymb[i] = pgm_read_byte(&herz[0][i]);
				}
				for(int i=0; i<HERZ_KLEIN_WIDTH; i++){
    42ac:	01 96       	adiw	r24, 0x01	; 1
    42ae:	8a 30       	cpi	r24, 0x0A	; 10
    42b0:	91 05       	cpc	r25, r1
    42b2:	81 f7       	brne	.-32     	; 0x4294 <main+0x164>
    42b4:	f3 01       	movw	r30, r6
    42b6:	d2 01       	movw	r26, r4
					herzKleinSymb[i] = pgm_read_byte(&herzKlein[0][i]);
					herzKleinOffenSymb[i] = pgm_read_byte(&herzKleinOffen[0][i]);
				}
				for(int i=0; i<HAKEN_WIDTH; i++){//PRFEN hakenSymb i<60
					hakenSymb[i] = pgm_read_byte(&haken[0][i]);
    42b8:	84 91       	lpm	r24, Z
    42ba:	8d 93       	st	X+, r24
    42bc:	31 96       	adiw	r30, 0x01	; 1
				}
				for(int i=0; i<HERZ_KLEIN_WIDTH; i++){
					herzKleinSymb[i] = pgm_read_byte(&herzKlein[0][i]);
					herzKleinOffenSymb[i] = pgm_read_byte(&herzKleinOffen[0][i]);
				}
				for(int i=0; i<HAKEN_WIDTH; i++){//PRFEN hakenSymb i<60
    42be:	ac 17       	cp	r26, r28
    42c0:	bd 07       	cpc	r27, r29
    42c2:	d1 f7       	brne	.-12     	; 0x42b8 <main+0x188>
					hakenSymb[i] = pgm_read_byte(&haken[0][i]);
				}
				menuOpen = true;
    42c4:	30 92 71 01 	sts	0x0171, r3
				show_mainMenu(STDDISPLAY);
    42c8:	81 e0       	ldi	r24, 0x01	; 1
    42ca:	90 e0       	ldi	r25, 0x00	; 0
    42cc:	0e 94 52 20 	call	0x40a4	; 0x40a4 <show_mainMenu>
			} 
			btn_drehenc_pushed = false;
    42d0:	10 92 6e 01 	sts	0x016E, r1
			menuOpen = false;
    42d4:	10 92 71 01 	sts	0x0171, r1
		}
		goodNight();
    42d8:	0e 94 4c 14 	call	0x2898	; 0x2898 <goodNight>
	}
    42dc:	67 cf       	rjmp	.-306    	; 0x41ac <main+0x7c>
			TCNT0 = 0;
			TCCR0B = (1<<CS02);//Prescaler 256		
	}
	
	void stop_btnPress(){
		TCCR0B = 0; //TIMER0 aus
    42de:	15 bc       	out	0x25, r1	; 37
			//warten, solange Taste gedrckt ist
			while((PINB & (1<<PINB2)) && (btn_press_duration<BTN_PRESS_LONG)){_delay_ms(50);}//KANN DELAY WEGGELASSEN WERDEN?
			//Zeitmessung beenden
			stop_btnPress();
			//falls lnger als BTN_PRESS_LONG gedrckt wurde, Men ffnen
			if(btn_press_duration > BTN_PRESS_LONG){ 
    42e0:	20 e0       	ldi	r18, 0x00	; 0
    42e2:	30 e0       	ldi	r19, 0x00	; 0
    42e4:	40 ec       	ldi	r20, 0xC0	; 192
    42e6:	5f e3       	ldi	r21, 0x3F	; 63
    42e8:	60 91 69 01 	lds	r22, 0x0169
    42ec:	70 91 6a 01 	lds	r23, 0x016A
    42f0:	80 91 6b 01 	lds	r24, 0x016B
    42f4:	90 91 6c 01 	lds	r25, 0x016C
    42f8:	0e 94 6a 22 	call	0x44d4	; 0x44d4 <__gesf2>
    42fc:	18 16       	cp	r1, r24
    42fe:	44 f7       	brge	.-48     	; 0x42d0 <main+0x1a0>
    4300:	f6 01       	movw	r30, r12
    4302:	d7 01       	movw	r26, r14
    4304:	bd cf       	rjmp	.-134    	; 0x4280 <main+0x150>

00004306 <__subsf3>:
    4306:	50 58       	subi	r21, 0x80	; 128

00004308 <__addsf3>:
    4308:	bb 27       	eor	r27, r27
    430a:	aa 27       	eor	r26, r26
    430c:	0e 94 9b 21 	call	0x4336	; 0x4336 <__addsf3x>
    4310:	0c 94 30 22 	jmp	0x4460	; 0x4460 <__fp_round>
    4314:	0e 94 22 22 	call	0x4444	; 0x4444 <__fp_pscA>
    4318:	38 f0       	brcs	.+14     	; 0x4328 <__addsf3+0x20>
    431a:	0e 94 29 22 	call	0x4452	; 0x4452 <__fp_pscB>
    431e:	20 f0       	brcs	.+8      	; 0x4328 <__addsf3+0x20>
    4320:	39 f4       	brne	.+14     	; 0x4330 <__addsf3+0x28>
    4322:	9f 3f       	cpi	r25, 0xFF	; 255
    4324:	19 f4       	brne	.+6      	; 0x432c <__addsf3+0x24>
    4326:	26 f4       	brtc	.+8      	; 0x4330 <__addsf3+0x28>
    4328:	0c 94 1f 22 	jmp	0x443e	; 0x443e <__fp_nan>
    432c:	0e f4       	brtc	.+2      	; 0x4330 <__addsf3+0x28>
    432e:	e0 95       	com	r30
    4330:	e7 fb       	bst	r30, 7
    4332:	0c 94 19 22 	jmp	0x4432	; 0x4432 <__fp_inf>

00004336 <__addsf3x>:
    4336:	e9 2f       	mov	r30, r25
    4338:	0e 94 41 22 	call	0x4482	; 0x4482 <__fp_split3>
    433c:	58 f3       	brcs	.-42     	; 0x4314 <__addsf3+0xc>
    433e:	ba 17       	cp	r27, r26
    4340:	62 07       	cpc	r22, r18
    4342:	73 07       	cpc	r23, r19
    4344:	84 07       	cpc	r24, r20
    4346:	95 07       	cpc	r25, r21
    4348:	20 f0       	brcs	.+8      	; 0x4352 <__addsf3x+0x1c>
    434a:	79 f4       	brne	.+30     	; 0x436a <__addsf3x+0x34>
    434c:	a6 f5       	brtc	.+104    	; 0x43b6 <__addsf3x+0x80>
    434e:	0c 94 63 22 	jmp	0x44c6	; 0x44c6 <__fp_zero>
    4352:	0e f4       	brtc	.+2      	; 0x4356 <__addsf3x+0x20>
    4354:	e0 95       	com	r30
    4356:	0b 2e       	mov	r0, r27
    4358:	ba 2f       	mov	r27, r26
    435a:	a0 2d       	mov	r26, r0
    435c:	0b 01       	movw	r0, r22
    435e:	b9 01       	movw	r22, r18
    4360:	90 01       	movw	r18, r0
    4362:	0c 01       	movw	r0, r24
    4364:	ca 01       	movw	r24, r20
    4366:	a0 01       	movw	r20, r0
    4368:	11 24       	eor	r1, r1
    436a:	ff 27       	eor	r31, r31
    436c:	59 1b       	sub	r21, r25
    436e:	99 f0       	breq	.+38     	; 0x4396 <__addsf3x+0x60>
    4370:	59 3f       	cpi	r21, 0xF9	; 249
    4372:	50 f4       	brcc	.+20     	; 0x4388 <__addsf3x+0x52>
    4374:	50 3e       	cpi	r21, 0xE0	; 224
    4376:	68 f1       	brcs	.+90     	; 0x43d2 <__addsf3x+0x9c>
    4378:	1a 16       	cp	r1, r26
    437a:	f0 40       	sbci	r31, 0x00	; 0
    437c:	a2 2f       	mov	r26, r18
    437e:	23 2f       	mov	r18, r19
    4380:	34 2f       	mov	r19, r20
    4382:	44 27       	eor	r20, r20
    4384:	58 5f       	subi	r21, 0xF8	; 248
    4386:	f3 cf       	rjmp	.-26     	; 0x436e <__addsf3x+0x38>
    4388:	46 95       	lsr	r20
    438a:	37 95       	ror	r19
    438c:	27 95       	ror	r18
    438e:	a7 95       	ror	r26
    4390:	f0 40       	sbci	r31, 0x00	; 0
    4392:	53 95       	inc	r21
    4394:	c9 f7       	brne	.-14     	; 0x4388 <__addsf3x+0x52>
    4396:	7e f4       	brtc	.+30     	; 0x43b6 <__addsf3x+0x80>
    4398:	1f 16       	cp	r1, r31
    439a:	ba 0b       	sbc	r27, r26
    439c:	62 0b       	sbc	r22, r18
    439e:	73 0b       	sbc	r23, r19
    43a0:	84 0b       	sbc	r24, r20
    43a2:	ba f0       	brmi	.+46     	; 0x43d2 <__addsf3x+0x9c>
    43a4:	91 50       	subi	r25, 0x01	; 1
    43a6:	a1 f0       	breq	.+40     	; 0x43d0 <__addsf3x+0x9a>
    43a8:	ff 0f       	add	r31, r31
    43aa:	bb 1f       	adc	r27, r27
    43ac:	66 1f       	adc	r22, r22
    43ae:	77 1f       	adc	r23, r23
    43b0:	88 1f       	adc	r24, r24
    43b2:	c2 f7       	brpl	.-16     	; 0x43a4 <__addsf3x+0x6e>
    43b4:	0e c0       	rjmp	.+28     	; 0x43d2 <__addsf3x+0x9c>
    43b6:	ba 0f       	add	r27, r26
    43b8:	62 1f       	adc	r22, r18
    43ba:	73 1f       	adc	r23, r19
    43bc:	84 1f       	adc	r24, r20
    43be:	48 f4       	brcc	.+18     	; 0x43d2 <__addsf3x+0x9c>
    43c0:	87 95       	ror	r24
    43c2:	77 95       	ror	r23
    43c4:	67 95       	ror	r22
    43c6:	b7 95       	ror	r27
    43c8:	f7 95       	ror	r31
    43ca:	9e 3f       	cpi	r25, 0xFE	; 254
    43cc:	08 f0       	brcs	.+2      	; 0x43d0 <__addsf3x+0x9a>
    43ce:	b0 cf       	rjmp	.-160    	; 0x4330 <__addsf3+0x28>
    43d0:	93 95       	inc	r25
    43d2:	88 0f       	add	r24, r24
    43d4:	08 f0       	brcs	.+2      	; 0x43d8 <__addsf3x+0xa2>
    43d6:	99 27       	eor	r25, r25
    43d8:	ee 0f       	add	r30, r30
    43da:	97 95       	ror	r25
    43dc:	87 95       	ror	r24
    43de:	08 95       	ret

000043e0 <__cmpsf2>:
    43e0:	0e 94 f5 21 	call	0x43ea	; 0x43ea <__fp_cmp>
    43e4:	08 f4       	brcc	.+2      	; 0x43e8 <__cmpsf2+0x8>
    43e6:	81 e0       	ldi	r24, 0x01	; 1
    43e8:	08 95       	ret

000043ea <__fp_cmp>:
    43ea:	99 0f       	add	r25, r25
    43ec:	00 08       	sbc	r0, r0
    43ee:	55 0f       	add	r21, r21
    43f0:	aa 0b       	sbc	r26, r26
    43f2:	e0 e8       	ldi	r30, 0x80	; 128
    43f4:	fe ef       	ldi	r31, 0xFE	; 254
    43f6:	16 16       	cp	r1, r22
    43f8:	17 06       	cpc	r1, r23
    43fa:	e8 07       	cpc	r30, r24
    43fc:	f9 07       	cpc	r31, r25
    43fe:	c0 f0       	brcs	.+48     	; 0x4430 <__fp_cmp+0x46>
    4400:	12 16       	cp	r1, r18
    4402:	13 06       	cpc	r1, r19
    4404:	e4 07       	cpc	r30, r20
    4406:	f5 07       	cpc	r31, r21
    4408:	98 f0       	brcs	.+38     	; 0x4430 <__fp_cmp+0x46>
    440a:	62 1b       	sub	r22, r18
    440c:	73 0b       	sbc	r23, r19
    440e:	84 0b       	sbc	r24, r20
    4410:	95 0b       	sbc	r25, r21
    4412:	39 f4       	brne	.+14     	; 0x4422 <__fp_cmp+0x38>
    4414:	0a 26       	eor	r0, r26
    4416:	61 f0       	breq	.+24     	; 0x4430 <__fp_cmp+0x46>
    4418:	23 2b       	or	r18, r19
    441a:	24 2b       	or	r18, r20
    441c:	25 2b       	or	r18, r21
    441e:	21 f4       	brne	.+8      	; 0x4428 <__fp_cmp+0x3e>
    4420:	08 95       	ret
    4422:	0a 26       	eor	r0, r26
    4424:	09 f4       	brne	.+2      	; 0x4428 <__fp_cmp+0x3e>
    4426:	a1 40       	sbci	r26, 0x01	; 1
    4428:	a6 95       	lsr	r26
    442a:	8f ef       	ldi	r24, 0xFF	; 255
    442c:	81 1d       	adc	r24, r1
    442e:	81 1d       	adc	r24, r1
    4430:	08 95       	ret

00004432 <__fp_inf>:
    4432:	97 f9       	bld	r25, 7
    4434:	9f 67       	ori	r25, 0x7F	; 127
    4436:	80 e8       	ldi	r24, 0x80	; 128
    4438:	70 e0       	ldi	r23, 0x00	; 0
    443a:	60 e0       	ldi	r22, 0x00	; 0
    443c:	08 95       	ret

0000443e <__fp_nan>:
    443e:	9f ef       	ldi	r25, 0xFF	; 255
    4440:	80 ec       	ldi	r24, 0xC0	; 192
    4442:	08 95       	ret

00004444 <__fp_pscA>:
    4444:	00 24       	eor	r0, r0
    4446:	0a 94       	dec	r0
    4448:	16 16       	cp	r1, r22
    444a:	17 06       	cpc	r1, r23
    444c:	18 06       	cpc	r1, r24
    444e:	09 06       	cpc	r0, r25
    4450:	08 95       	ret

00004452 <__fp_pscB>:
    4452:	00 24       	eor	r0, r0
    4454:	0a 94       	dec	r0
    4456:	12 16       	cp	r1, r18
    4458:	13 06       	cpc	r1, r19
    445a:	14 06       	cpc	r1, r20
    445c:	05 06       	cpc	r0, r21
    445e:	08 95       	ret

00004460 <__fp_round>:
    4460:	09 2e       	mov	r0, r25
    4462:	03 94       	inc	r0
    4464:	00 0c       	add	r0, r0
    4466:	11 f4       	brne	.+4      	; 0x446c <__fp_round+0xc>
    4468:	88 23       	and	r24, r24
    446a:	52 f0       	brmi	.+20     	; 0x4480 <__fp_round+0x20>
    446c:	bb 0f       	add	r27, r27
    446e:	40 f4       	brcc	.+16     	; 0x4480 <__fp_round+0x20>
    4470:	bf 2b       	or	r27, r31
    4472:	11 f4       	brne	.+4      	; 0x4478 <__fp_round+0x18>
    4474:	60 ff       	sbrs	r22, 0
    4476:	04 c0       	rjmp	.+8      	; 0x4480 <__fp_round+0x20>
    4478:	6f 5f       	subi	r22, 0xFF	; 255
    447a:	7f 4f       	sbci	r23, 0xFF	; 255
    447c:	8f 4f       	sbci	r24, 0xFF	; 255
    447e:	9f 4f       	sbci	r25, 0xFF	; 255
    4480:	08 95       	ret

00004482 <__fp_split3>:
    4482:	57 fd       	sbrc	r21, 7
    4484:	90 58       	subi	r25, 0x80	; 128
    4486:	44 0f       	add	r20, r20
    4488:	55 1f       	adc	r21, r21
    448a:	59 f0       	breq	.+22     	; 0x44a2 <__fp_splitA+0x10>
    448c:	5f 3f       	cpi	r21, 0xFF	; 255
    448e:	71 f0       	breq	.+28     	; 0x44ac <__fp_splitA+0x1a>
    4490:	47 95       	ror	r20

00004492 <__fp_splitA>:
    4492:	88 0f       	add	r24, r24
    4494:	97 fb       	bst	r25, 7
    4496:	99 1f       	adc	r25, r25
    4498:	61 f0       	breq	.+24     	; 0x44b2 <__fp_splitA+0x20>
    449a:	9f 3f       	cpi	r25, 0xFF	; 255
    449c:	79 f0       	breq	.+30     	; 0x44bc <__fp_splitA+0x2a>
    449e:	87 95       	ror	r24
    44a0:	08 95       	ret
    44a2:	12 16       	cp	r1, r18
    44a4:	13 06       	cpc	r1, r19
    44a6:	14 06       	cpc	r1, r20
    44a8:	55 1f       	adc	r21, r21
    44aa:	f2 cf       	rjmp	.-28     	; 0x4490 <__fp_split3+0xe>
    44ac:	46 95       	lsr	r20
    44ae:	f1 df       	rcall	.-30     	; 0x4492 <__fp_splitA>
    44b0:	08 c0       	rjmp	.+16     	; 0x44c2 <__fp_splitA+0x30>
    44b2:	16 16       	cp	r1, r22
    44b4:	17 06       	cpc	r1, r23
    44b6:	18 06       	cpc	r1, r24
    44b8:	99 1f       	adc	r25, r25
    44ba:	f1 cf       	rjmp	.-30     	; 0x449e <__fp_splitA+0xc>
    44bc:	86 95       	lsr	r24
    44be:	71 05       	cpc	r23, r1
    44c0:	61 05       	cpc	r22, r1
    44c2:	08 94       	sec
    44c4:	08 95       	ret

000044c6 <__fp_zero>:
    44c6:	e8 94       	clt

000044c8 <__fp_szero>:
    44c8:	bb 27       	eor	r27, r27
    44ca:	66 27       	eor	r22, r22
    44cc:	77 27       	eor	r23, r23
    44ce:	cb 01       	movw	r24, r22
    44d0:	97 f9       	bld	r25, 7
    44d2:	08 95       	ret

000044d4 <__gesf2>:
    44d4:	0e 94 f5 21 	call	0x43ea	; 0x43ea <__fp_cmp>
    44d8:	08 f4       	brcc	.+2      	; 0x44dc <__gesf2+0x8>
    44da:	8f ef       	ldi	r24, 0xFF	; 255
    44dc:	08 95       	ret

000044de <__divmodhi4>:
    44de:	97 fb       	bst	r25, 7
    44e0:	07 2e       	mov	r0, r23
    44e2:	16 f4       	brtc	.+4      	; 0x44e8 <__divmodhi4+0xa>
    44e4:	00 94       	com	r0
    44e6:	07 d0       	rcall	.+14     	; 0x44f6 <__divmodhi4_neg1>
    44e8:	77 fd       	sbrc	r23, 7
    44ea:	09 d0       	rcall	.+18     	; 0x44fe <__divmodhi4_neg2>
    44ec:	0e 94 83 22 	call	0x4506	; 0x4506 <__udivmodhi4>
    44f0:	07 fc       	sbrc	r0, 7
    44f2:	05 d0       	rcall	.+10     	; 0x44fe <__divmodhi4_neg2>
    44f4:	3e f4       	brtc	.+14     	; 0x4504 <__divmodhi4_exit>

000044f6 <__divmodhi4_neg1>:
    44f6:	90 95       	com	r25
    44f8:	81 95       	neg	r24
    44fa:	9f 4f       	sbci	r25, 0xFF	; 255
    44fc:	08 95       	ret

000044fe <__divmodhi4_neg2>:
    44fe:	70 95       	com	r23
    4500:	61 95       	neg	r22
    4502:	7f 4f       	sbci	r23, 0xFF	; 255

00004504 <__divmodhi4_exit>:
    4504:	08 95       	ret

00004506 <__udivmodhi4>:
    4506:	aa 1b       	sub	r26, r26
    4508:	bb 1b       	sub	r27, r27
    450a:	51 e1       	ldi	r21, 0x11	; 17
    450c:	07 c0       	rjmp	.+14     	; 0x451c <__udivmodhi4_ep>

0000450e <__udivmodhi4_loop>:
    450e:	aa 1f       	adc	r26, r26
    4510:	bb 1f       	adc	r27, r27
    4512:	a6 17       	cp	r26, r22
    4514:	b7 07       	cpc	r27, r23
    4516:	10 f0       	brcs	.+4      	; 0x451c <__udivmodhi4_ep>
    4518:	a6 1b       	sub	r26, r22
    451a:	b7 0b       	sbc	r27, r23

0000451c <__udivmodhi4_ep>:
    451c:	88 1f       	adc	r24, r24
    451e:	99 1f       	adc	r25, r25
    4520:	5a 95       	dec	r21
    4522:	a9 f7       	brne	.-22     	; 0x450e <__udivmodhi4_loop>
    4524:	80 95       	com	r24
    4526:	90 95       	com	r25
    4528:	bc 01       	movw	r22, r24
    452a:	cd 01       	movw	r24, r26
    452c:	08 95       	ret

0000452e <_exit>:
    452e:	f8 94       	cli

00004530 <__stop_program>:
    4530:	ff cf       	rjmp	.-2      	; 0x4530 <__stop_program>
